

Microchip Technology PIC LITE Macro Assembler V2.00 build -1524193055 
                                                                                               Fri Feb 28 07:31:05 2020

Microchip Technology Omniscient Code Generator v2.00 (Free mode) build 20180527130849
     1  0000                     
      + 0000                     
     2                           ; Version 2.00
     3                           ; Generated 27/05/2018 GMT
     4                           
     5                           ; 
     6                           ; Copyright © 2018, Microchip Technology Inc. and its subsidiaries ("Microchip")
     7                           ; All rights reserved.
     8                           ; 
     9                           ; This software is developed by Microchip Technology Inc. and its subsidiaries ("Microch
                                 ip").
    10                           ; 
    11                           ; Redistribution and use in source and binary forms, with or without modification, are
    12                           ; permitted provided that the following conditions are met:
    13                           ; 
    14                           ;     1. Redistributions of source code must retain the above copyright notice, this lis
                                 t of
    15                           ;        conditions and the following disclaimer.
    16                           ; 
    17                           ;     2. Redistributions in binary form must reproduce the above copyright notice, this 
                                 list
    18                           ;        of conditions and the following disclaimer in the documentation and/or other
    19                           ;        materials provided with the distribution.
    20                           ; 
    21                           ;     3. Microchip's name may not be used to endorse or promote products derived from th
                                 is
    22                           ;        software without specific prior written permission.
    23                           ; 
    24                           ; THIS SOFTWARE IS PROVIDED BY MICROCHIP "AS IS" AND ANY EXPRESS OR IMPLIED WARRANTIES,

    25                           ; INCLUDING, BUT NOT LIMITED TO, THE IMPLIED WARRANTIES OF MERCHANTABILITY AND FITNESS F
                                 OR
    26                           ; PURPOSE ARE DISCLAIMED.  IN NO EVENT SHALL MICROCHIP BE LIABLE FOR ANY DIRECT, INDIREC
                                 T,
    27                           ; INCIDENTAL, SPECIAL, EXEMPLARY, OR CONSEQUENTIAL DAMAGES (INCLUDING BUT NOT LIMITED TO
                                 
    28                           ; PROCUREMENT OF SUBSTITUTE GOODS OR SERVICES; LOSS OF USE, DATA OR PROFITS; OR BUSINESS
                                 
    29                           ; INTERRUPTION) HOWSOEVER CAUSED AND ON ANY THEORY OF LIABILITY, WHETHER IN CONTRACT, ST
                                 RICT
    30                           ; LIABILITY, OR TORT (INCLUDING NEGLIGENCE OR OTHERWISE) ARISING IN ANY WAY OUT OF THE U
                                 SE OF
    31                           ; THIS SOFTWARE, EVEN IF ADVISED OF THE POSSIBILITY OF SUCH DAMAGE.
    32                           ; 
    33                           
    34                           
    35                           ; 
    36                           ; Code-generator required, PIC16F887 Definitions
    37                           ; 
    38  0004                     fsr0 equ 04h
    39  0004                     indf equ 00h
    40  0000                     indf0 equ 00h
    41  0000                     pc equ 02h
    42  0002                     pcl equ 02h
    43  0002                     pclath equ 0Ah
    44  000A                     status equ 03h
    45  0003                     
     2                           opt pagewidth 120
     3  0000                     byte0	macro	val
     4                           	(getbyte(val,0))
     5                           endm
     6  0000                     byte1	macro	val
     7                           	(getbyte(val,1))
     8                           endm
     9  0000                     byte2	macro	val
    10                           	(getbyte(val,2))
    11                           endm
    12  0000                     byte3	macro	val
    13                           	(getbyte(val,3))
    14                           endm
    15  0000                     byte4	macro	val
    16                           	(getbyte(val,4))
    17                           endm
    18  0000                     byte5	macro	val
    19                           	(getbyte(val,5))
    20                           endm
    21  0000                     byte6	macro	val
    22                           	(getbyte(val,6))
    23                           endm
    24  0000                     byte7	macro	val
    25                           	(getbyte(val,7))
    26                           endm
    27  0000                     getword	macro	val,pos
    28                           	(((val) >> (8 * pos)) and 0xffff)
    29                           endm
    30  0000                     word0	macro	val
    31                           	(getword(val,0))
    32                           endm
    33  0000                     word1	macro	val
    34                           	(getword(val,2))
    35                           endm
    36  0000                     word2	macro	val
    37                           	(getword(val,4))
    38                           endm
    39  0000                     word3	macro	val
    40                           	(getword(val,6))
    41                           endm
    42  0000                     gettword	macro	val,pos
    43                           	(((val) >> (8 * pos)) and 0xffffff)
    44                           endm
    45  0000                     tword0	macro	val
    46                           	(gettword(val,0))
    47                           endm
    48  0000                     tword1	macro	val
    49                           	(gettword(val,3))
    50                           endm
    51  0000                     tword2	macro	val
    52                           	(gettword(val,6))
    53                           endm
    54  0000                     getdword	macro	val,pos
    55                           	(((val) >> (8 * pos)) and 0xffffffff)
    56                           endm
    57  0000                     dword0	macro	val
    58                           	(getdword(val,0))
    59                           endm
    60  0000                     dword1	macro	val
    61                           	(getdword(val,4))
    62                           endm
    63  0000                     clrc	macro
    64                           	bcf	3,0
    65                           	endm
    66  0000                     clrz	macro
    67                           	bcf	3,2
    68                           	endm
    69  0000                     setc	macro
    70                           	bsf	3,0
    71                           	endm
    72  0000                     setz	macro
    73                           	bsf	3,2
    74                           	endm
    75  0000                     skipc	macro
    76                           	btfss	3,0
    77                           	endm
    78  0000                     skipz	macro
    79                           	btfss	3,2
    80                           	endm
    81  0000                     skipnc	macro
    82                           	btfsc	3,0
    83                           	endm
    84  0000                     skipnz	macro
    85                           	btfsc	3,2
    86                           	endm
    87  0000                     # 54 "C:\Program Files (x86)\Microchip\xc8\v2.00\pic\include\pic16f887.h"
    88                           INDF equ 00h ;# 
    89  0000                     # 61 "C:\Program Files (x86)\Microchip\xc8\v2.00\pic\include\pic16f887.h"
    90                           TMR0 equ 01h ;# 
    91  0001                     # 68 "C:\Program Files (x86)\Microchip\xc8\v2.00\pic\include\pic16f887.h"
    92                           PCL equ 02h ;# 
    93  0002                     # 75 "C:\Program Files (x86)\Microchip\xc8\v2.00\pic\include\pic16f887.h"
    94                           STATUS equ 03h ;# 
    95  0003                     # 161 "C:\Program Files (x86)\Microchip\xc8\v2.00\pic\include\pic16f887.h"
    96                           FSR equ 04h ;# 
    97  0004                     # 168 "C:\Program Files (x86)\Microchip\xc8\v2.00\pic\include\pic16f887.h"
    98                           PORTA equ 05h ;# 
    99  0005                     # 230 "C:\Program Files (x86)\Microchip\xc8\v2.00\pic\include\pic16f887.h"
   100                           PORTB equ 06h ;# 
   101  0006                     # 292 "C:\Program Files (x86)\Microchip\xc8\v2.00\pic\include\pic16f887.h"
   102                           PORTC equ 07h ;# 
   103  0007                     # 354 "C:\Program Files (x86)\Microchip\xc8\v2.00\pic\include\pic16f887.h"
   104                           PORTD equ 08h ;# 
   105  0008                     # 416 "C:\Program Files (x86)\Microchip\xc8\v2.00\pic\include\pic16f887.h"
   106                           PORTE equ 09h ;# 
   107  0009                     # 454 "C:\Program Files (x86)\Microchip\xc8\v2.00\pic\include\pic16f887.h"
   108                           PCLATH equ 0Ah ;# 
   109  000A                     # 461 "C:\Program Files (x86)\Microchip\xc8\v2.00\pic\include\pic16f887.h"
   110                           INTCON equ 0Bh ;# 
   111  000B                     # 539 "C:\Program Files (x86)\Microchip\xc8\v2.00\pic\include\pic16f887.h"
   112                           PIR1 equ 0Ch ;# 
   113  000C                     # 595 "C:\Program Files (x86)\Microchip\xc8\v2.00\pic\include\pic16f887.h"
   114                           PIR2 equ 0Dh ;# 
   115  000D                     # 652 "C:\Program Files (x86)\Microchip\xc8\v2.00\pic\include\pic16f887.h"
   116                           TMR1 equ 0Eh ;# 
   117  000E                     # 659 "C:\Program Files (x86)\Microchip\xc8\v2.00\pic\include\pic16f887.h"
   118                           TMR1L equ 0Eh ;# 
   119  000E                     # 666 "C:\Program Files (x86)\Microchip\xc8\v2.00\pic\include\pic16f887.h"
   120                           TMR1H equ 0Fh ;# 
   121  000F                     # 673 "C:\Program Files (x86)\Microchip\xc8\v2.00\pic\include\pic16f887.h"
   122                           T1CON equ 010h ;# 
   123  0010                     # 767 "C:\Program Files (x86)\Microchip\xc8\v2.00\pic\include\pic16f887.h"
   124                           TMR2 equ 011h ;# 
   125  0011                     # 774 "C:\Program Files (x86)\Microchip\xc8\v2.00\pic\include\pic16f887.h"
   126                           T2CON equ 012h ;# 
   127  0012                     # 845 "C:\Program Files (x86)\Microchip\xc8\v2.00\pic\include\pic16f887.h"
   128                           SSPBUF equ 013h ;# 
   129  0013                     # 852 "C:\Program Files (x86)\Microchip\xc8\v2.00\pic\include\pic16f887.h"
   130                           SSPCON equ 014h ;# 
   131  0014                     # 922 "C:\Program Files (x86)\Microchip\xc8\v2.00\pic\include\pic16f887.h"
   132                           CCPR1 equ 015h ;# 
   133  0015                     # 929 "C:\Program Files (x86)\Microchip\xc8\v2.00\pic\include\pic16f887.h"
   134                           CCPR1L equ 015h ;# 
   135  0015                     # 936 "C:\Program Files (x86)\Microchip\xc8\v2.00\pic\include\pic16f887.h"
   136                           CCPR1H equ 016h ;# 
   137  0016                     # 943 "C:\Program Files (x86)\Microchip\xc8\v2.00\pic\include\pic16f887.h"
   138                           CCP1CON equ 017h ;# 
   139  0017                     # 1040 "C:\Program Files (x86)\Microchip\xc8\v2.00\pic\include\pic16f887.h"
   140                           RCSTA equ 018h ;# 
   141  0018                     # 1135 "C:\Program Files (x86)\Microchip\xc8\v2.00\pic\include\pic16f887.h"
   142                           TXREG equ 019h ;# 
   143  0019                     # 1142 "C:\Program Files (x86)\Microchip\xc8\v2.00\pic\include\pic16f887.h"
   144                           RCREG equ 01Ah ;# 
   145  001A                     # 1149 "C:\Program Files (x86)\Microchip\xc8\v2.00\pic\include\pic16f887.h"
   146                           CCPR2 equ 01Bh ;# 
   147  001B                     # 1156 "C:\Program Files (x86)\Microchip\xc8\v2.00\pic\include\pic16f887.h"
   148                           CCPR2L equ 01Bh ;# 
   149  001B                     # 1163 "C:\Program Files (x86)\Microchip\xc8\v2.00\pic\include\pic16f887.h"
   150                           CCPR2H equ 01Ch ;# 
   151  001C                     # 1170 "C:\Program Files (x86)\Microchip\xc8\v2.00\pic\include\pic16f887.h"
   152                           CCP2CON equ 01Dh ;# 
   153  001D                     # 1240 "C:\Program Files (x86)\Microchip\xc8\v2.00\pic\include\pic16f887.h"
   154                           ADRESH equ 01Eh ;# 
   155  001E                     # 1247 "C:\Program Files (x86)\Microchip\xc8\v2.00\pic\include\pic16f887.h"
   156                           ADCON0 equ 01Fh ;# 
   157  001F                     # 1348 "C:\Program Files (x86)\Microchip\xc8\v2.00\pic\include\pic16f887.h"
   158                           OPTION_REG equ 081h ;# 
   159  0081                     # 1418 "C:\Program Files (x86)\Microchip\xc8\v2.00\pic\include\pic16f887.h"
   160                           TRISA equ 085h ;# 
   161  0085                     # 1480 "C:\Program Files (x86)\Microchip\xc8\v2.00\pic\include\pic16f887.h"
   162                           TRISB equ 086h ;# 
   163  0086                     # 1542 "C:\Program Files (x86)\Microchip\xc8\v2.00\pic\include\pic16f887.h"
   164                           TRISC equ 087h ;# 
   165  0087                     # 1604 "C:\Program Files (x86)\Microchip\xc8\v2.00\pic\include\pic16f887.h"
   166                           TRISD equ 088h ;# 
   167  0088                     # 1666 "C:\Program Files (x86)\Microchip\xc8\v2.00\pic\include\pic16f887.h"
   168                           TRISE equ 089h ;# 
   169  0089                     # 1704 "C:\Program Files (x86)\Microchip\xc8\v2.00\pic\include\pic16f887.h"
   170                           PIE1 equ 08Ch ;# 
   171  008C                     # 1760 "C:\Program Files (x86)\Microchip\xc8\v2.00\pic\include\pic16f887.h"
   172                           PIE2 equ 08Dh ;# 
   173  008D                     # 1817 "C:\Program Files (x86)\Microchip\xc8\v2.00\pic\include\pic16f887.h"
   174                           PCON equ 08Eh ;# 
   175  008E                     # 1864 "C:\Program Files (x86)\Microchip\xc8\v2.00\pic\include\pic16f887.h"
   176                           OSCCON equ 08Fh ;# 
   177  008F                     # 1929 "C:\Program Files (x86)\Microchip\xc8\v2.00\pic\include\pic16f887.h"
   178                           OSCTUNE equ 090h ;# 
   179  0090                     # 1981 "C:\Program Files (x86)\Microchip\xc8\v2.00\pic\include\pic16f887.h"
   180                           SSPCON2 equ 091h ;# 
   181  0091                     # 2043 "C:\Program Files (x86)\Microchip\xc8\v2.00\pic\include\pic16f887.h"
   182                           PR2 equ 092h ;# 
   183  0092                     # 2050 "C:\Program Files (x86)\Microchip\xc8\v2.00\pic\include\pic16f887.h"
   184                           SSPADD equ 093h ;# 
   185  0093                     # 2057 "C:\Program Files (x86)\Microchip\xc8\v2.00\pic\include\pic16f887.h"
   186                           SSPMSK equ 093h ;# 
   187  0093                     # 2062 "C:\Program Files (x86)\Microchip\xc8\v2.00\pic\include\pic16f887.h"
   188                           MSK equ 093h ;# 
   189  0093                     # 2179 "C:\Program Files (x86)\Microchip\xc8\v2.00\pic\include\pic16f887.h"
   190                           SSPSTAT equ 094h ;# 
   191  0094                     # 2348 "C:\Program Files (x86)\Microchip\xc8\v2.00\pic\include\pic16f887.h"
   192                           WPUB equ 095h ;# 
   193  0095                     # 2418 "C:\Program Files (x86)\Microchip\xc8\v2.00\pic\include\pic16f887.h"
   194                           IOCB equ 096h ;# 
   195  0096                     # 2488 "C:\Program Files (x86)\Microchip\xc8\v2.00\pic\include\pic16f887.h"
   196                           VRCON equ 097h ;# 
   197  0097                     # 2558 "C:\Program Files (x86)\Microchip\xc8\v2.00\pic\include\pic16f887.h"
   198                           TXSTA equ 098h ;# 
   199  0098                     # 2644 "C:\Program Files (x86)\Microchip\xc8\v2.00\pic\include\pic16f887.h"
   200                           SPBRG equ 099h ;# 
   201  0099                     # 2706 "C:\Program Files (x86)\Microchip\xc8\v2.00\pic\include\pic16f887.h"
   202                           SPBRGH equ 09Ah ;# 
   203  009A                     # 2776 "C:\Program Files (x86)\Microchip\xc8\v2.00\pic\include\pic16f887.h"
   204                           PWM1CON equ 09Bh ;# 
   205  009B                     # 2846 "C:\Program Files (x86)\Microchip\xc8\v2.00\pic\include\pic16f887.h"
   206                           ECCPAS equ 09Ch ;# 
   207  009C                     # 2928 "C:\Program Files (x86)\Microchip\xc8\v2.00\pic\include\pic16f887.h"
   208                           PSTRCON equ 09Dh ;# 
   209  009D                     # 2972 "C:\Program Files (x86)\Microchip\xc8\v2.00\pic\include\pic16f887.h"
   210                           ADRESL equ 09Eh ;# 
   211  009E                     # 2979 "C:\Program Files (x86)\Microchip\xc8\v2.00\pic\include\pic16f887.h"
   212                           ADCON1 equ 09Fh ;# 
   213  009F                     # 3013 "C:\Program Files (x86)\Microchip\xc8\v2.00\pic\include\pic16f887.h"
   214                           WDTCON equ 0105h ;# 
   215  0105                     # 3066 "C:\Program Files (x86)\Microchip\xc8\v2.00\pic\include\pic16f887.h"
   216                           CM1CON0 equ 0107h ;# 
   217  0107                     # 3131 "C:\Program Files (x86)\Microchip\xc8\v2.00\pic\include\pic16f887.h"
   218                           CM2CON0 equ 0108h ;# 
   219  0108                     # 3196 "C:\Program Files (x86)\Microchip\xc8\v2.00\pic\include\pic16f887.h"
   220                           CM2CON1 equ 0109h ;# 
   221  0109                     # 3247 "C:\Program Files (x86)\Microchip\xc8\v2.00\pic\include\pic16f887.h"
   222                           EEDATA equ 010Ch ;# 
   223  010C                     # 3252 "C:\Program Files (x86)\Microchip\xc8\v2.00\pic\include\pic16f887.h"
   224                           EEDAT equ 010Ch ;# 
   225  010C                     # 3259 "C:\Program Files (x86)\Microchip\xc8\v2.00\pic\include\pic16f887.h"
   226                           EEADR equ 010Dh ;# 
   227  010D                     # 3266 "C:\Program Files (x86)\Microchip\xc8\v2.00\pic\include\pic16f887.h"
   228                           EEDATH equ 010Eh ;# 
   229  010E                     # 3273 "C:\Program Files (x86)\Microchip\xc8\v2.00\pic\include\pic16f887.h"
   230                           EEADRH equ 010Fh ;# 
   231  010F                     # 3280 "C:\Program Files (x86)\Microchip\xc8\v2.00\pic\include\pic16f887.h"
   232                           SRCON equ 0185h ;# 
   233  0185                     # 3337 "C:\Program Files (x86)\Microchip\xc8\v2.00\pic\include\pic16f887.h"
   234                           BAUDCTL equ 0187h ;# 
   235  0187                     # 3389 "C:\Program Files (x86)\Microchip\xc8\v2.00\pic\include\pic16f887.h"
   236                           ANSEL equ 0188h ;# 
   237  0188                     # 3451 "C:\Program Files (x86)\Microchip\xc8\v2.00\pic\include\pic16f887.h"
   238                           ANSELH equ 0189h ;# 
   239  0189                     # 3501 "C:\Program Files (x86)\Microchip\xc8\v2.00\pic\include\pic16f887.h"
   240                           EECON1 equ 018Ch ;# 
   241  018C                     # 3546 "C:\Program Files (x86)\Microchip\xc8\v2.00\pic\include\pic16f887.h"
   242                           EECON2 equ 018Dh ;# 
   243  018D                     # 54 "C:\Program Files (x86)\Microchip\xc8\v2.00\pic\include\pic16f887.h"
   244                           INDF equ 00h ;# 
   245  0000                     # 61 "C:\Program Files (x86)\Microchip\xc8\v2.00\pic\include\pic16f887.h"
   246                           TMR0 equ 01h ;# 
   247  0001                     # 68 "C:\Program Files (x86)\Microchip\xc8\v2.00\pic\include\pic16f887.h"
   248                           PCL equ 02h ;# 
   249  0002                     # 75 "C:\Program Files (x86)\Microchip\xc8\v2.00\pic\include\pic16f887.h"
   250                           STATUS equ 03h ;# 
   251  0003                     # 161 "C:\Program Files (x86)\Microchip\xc8\v2.00\pic\include\pic16f887.h"
   252                           FSR equ 04h ;# 
   253  0004                     # 168 "C:\Program Files (x86)\Microchip\xc8\v2.00\pic\include\pic16f887.h"
   254                           PORTA equ 05h ;# 
   255  0005                     # 230 "C:\Program Files (x86)\Microchip\xc8\v2.00\pic\include\pic16f887.h"
   256                           PORTB equ 06h ;# 
   257  0006                     # 292 "C:\Program Files (x86)\Microchip\xc8\v2.00\pic\include\pic16f887.h"
   258                           PORTC equ 07h ;# 
   259  0007                     # 354 "C:\Program Files (x86)\Microchip\xc8\v2.00\pic\include\pic16f887.h"
   260                           PORTD equ 08h ;# 
   261  0008                     # 416 "C:\Program Files (x86)\Microchip\xc8\v2.00\pic\include\pic16f887.h"
   262                           PORTE equ 09h ;# 
   263  0009                     # 454 "C:\Program Files (x86)\Microchip\xc8\v2.00\pic\include\pic16f887.h"
   264                           PCLATH equ 0Ah ;# 
   265  000A                     # 461 "C:\Program Files (x86)\Microchip\xc8\v2.00\pic\include\pic16f887.h"
   266                           INTCON equ 0Bh ;# 
   267  000B                     # 539 "C:\Program Files (x86)\Microchip\xc8\v2.00\pic\include\pic16f887.h"
   268                           PIR1 equ 0Ch ;# 
   269  000C                     # 595 "C:\Program Files (x86)\Microchip\xc8\v2.00\pic\include\pic16f887.h"
   270                           PIR2 equ 0Dh ;# 
   271  000D                     # 652 "C:\Program Files (x86)\Microchip\xc8\v2.00\pic\include\pic16f887.h"
   272                           TMR1 equ 0Eh ;# 
   273  000E                     # 659 "C:\Program Files (x86)\Microchip\xc8\v2.00\pic\include\pic16f887.h"
   274                           TMR1L equ 0Eh ;# 
   275  000E                     # 666 "C:\Program Files (x86)\Microchip\xc8\v2.00\pic\include\pic16f887.h"
   276                           TMR1H equ 0Fh ;# 
   277  000F                     # 673 "C:\Program Files (x86)\Microchip\xc8\v2.00\pic\include\pic16f887.h"
   278                           T1CON equ 010h ;# 
   279  0010                     # 767 "C:\Program Files (x86)\Microchip\xc8\v2.00\pic\include\pic16f887.h"
   280                           TMR2 equ 011h ;# 
   281  0011                     # 774 "C:\Program Files (x86)\Microchip\xc8\v2.00\pic\include\pic16f887.h"
   282                           T2CON equ 012h ;# 
   283  0012                     # 845 "C:\Program Files (x86)\Microchip\xc8\v2.00\pic\include\pic16f887.h"
   284                           SSPBUF equ 013h ;# 
   285  0013                     # 852 "C:\Program Files (x86)\Microchip\xc8\v2.00\pic\include\pic16f887.h"
   286                           SSPCON equ 014h ;# 
   287  0014                     # 922 "C:\Program Files (x86)\Microchip\xc8\v2.00\pic\include\pic16f887.h"
   288                           CCPR1 equ 015h ;# 
   289  0015                     # 929 "C:\Program Files (x86)\Microchip\xc8\v2.00\pic\include\pic16f887.h"
   290                           CCPR1L equ 015h ;# 
   291  0015                     # 936 "C:\Program Files (x86)\Microchip\xc8\v2.00\pic\include\pic16f887.h"
   292                           CCPR1H equ 016h ;# 
   293  0016                     # 943 "C:\Program Files (x86)\Microchip\xc8\v2.00\pic\include\pic16f887.h"
   294                           CCP1CON equ 017h ;# 
   295  0017                     # 1040 "C:\Program Files (x86)\Microchip\xc8\v2.00\pic\include\pic16f887.h"
   296                           RCSTA equ 018h ;# 
   297  0018                     # 1135 "C:\Program Files (x86)\Microchip\xc8\v2.00\pic\include\pic16f887.h"
   298                           TXREG equ 019h ;# 
   299  0019                     # 1142 "C:\Program Files (x86)\Microchip\xc8\v2.00\pic\include\pic16f887.h"
   300                           RCREG equ 01Ah ;# 
   301  001A                     # 1149 "C:\Program Files (x86)\Microchip\xc8\v2.00\pic\include\pic16f887.h"
   302                           CCPR2 equ 01Bh ;# 
   303  001B                     # 1156 "C:\Program Files (x86)\Microchip\xc8\v2.00\pic\include\pic16f887.h"
   304                           CCPR2L equ 01Bh ;# 
   305  001B                     # 1163 "C:\Program Files (x86)\Microchip\xc8\v2.00\pic\include\pic16f887.h"
   306                           CCPR2H equ 01Ch ;# 
   307  001C                     # 1170 "C:\Program Files (x86)\Microchip\xc8\v2.00\pic\include\pic16f887.h"
   308                           CCP2CON equ 01Dh ;# 
   309  001D                     # 1240 "C:\Program Files (x86)\Microchip\xc8\v2.00\pic\include\pic16f887.h"
   310                           ADRESH equ 01Eh ;# 
   311  001E                     # 1247 "C:\Program Files (x86)\Microchip\xc8\v2.00\pic\include\pic16f887.h"
   312                           ADCON0 equ 01Fh ;# 
   313  001F                     # 1348 "C:\Program Files (x86)\Microchip\xc8\v2.00\pic\include\pic16f887.h"
   314                           OPTION_REG equ 081h ;# 
   315  0081                     # 1418 "C:\Program Files (x86)\Microchip\xc8\v2.00\pic\include\pic16f887.h"
   316                           TRISA equ 085h ;# 
   317  0085                     # 1480 "C:\Program Files (x86)\Microchip\xc8\v2.00\pic\include\pic16f887.h"
   318                           TRISB equ 086h ;# 
   319  0086                     # 1542 "C:\Program Files (x86)\Microchip\xc8\v2.00\pic\include\pic16f887.h"
   320                           TRISC equ 087h ;# 
   321  0087                     # 1604 "C:\Program Files (x86)\Microchip\xc8\v2.00\pic\include\pic16f887.h"
   322                           TRISD equ 088h ;# 
   323  0088                     # 1666 "C:\Program Files (x86)\Microchip\xc8\v2.00\pic\include\pic16f887.h"
   324                           TRISE equ 089h ;# 
   325  0089                     # 1704 "C:\Program Files (x86)\Microchip\xc8\v2.00\pic\include\pic16f887.h"
   326                           PIE1 equ 08Ch ;# 
   327  008C                     # 1760 "C:\Program Files (x86)\Microchip\xc8\v2.00\pic\include\pic16f887.h"
   328                           PIE2 equ 08Dh ;# 
   329  008D                     # 1817 "C:\Program Files (x86)\Microchip\xc8\v2.00\pic\include\pic16f887.h"
   330                           PCON equ 08Eh ;# 
   331  008E                     # 1864 "C:\Program Files (x86)\Microchip\xc8\v2.00\pic\include\pic16f887.h"
   332                           OSCCON equ 08Fh ;# 
   333  008F                     # 1929 "C:\Program Files (x86)\Microchip\xc8\v2.00\pic\include\pic16f887.h"
   334                           OSCTUNE equ 090h ;# 
   335  0090                     # 1981 "C:\Program Files (x86)\Microchip\xc8\v2.00\pic\include\pic16f887.h"
   336                           SSPCON2 equ 091h ;# 
   337  0091                     # 2043 "C:\Program Files (x86)\Microchip\xc8\v2.00\pic\include\pic16f887.h"
   338                           PR2 equ 092h ;# 
   339  0092                     # 2050 "C:\Program Files (x86)\Microchip\xc8\v2.00\pic\include\pic16f887.h"
   340                           SSPADD equ 093h ;# 
   341  0093                     # 2057 "C:\Program Files (x86)\Microchip\xc8\v2.00\pic\include\pic16f887.h"
   342                           SSPMSK equ 093h ;# 
   343  0093                     # 2062 "C:\Program Files (x86)\Microchip\xc8\v2.00\pic\include\pic16f887.h"
   344                           MSK equ 093h ;# 
   345  0093                     # 2179 "C:\Program Files (x86)\Microchip\xc8\v2.00\pic\include\pic16f887.h"
   346                           SSPSTAT equ 094h ;# 
   347  0094                     # 2348 "C:\Program Files (x86)\Microchip\xc8\v2.00\pic\include\pic16f887.h"
   348                           WPUB equ 095h ;# 
   349  0095                     # 2418 "C:\Program Files (x86)\Microchip\xc8\v2.00\pic\include\pic16f887.h"
   350                           IOCB equ 096h ;# 
   351  0096                     # 2488 "C:\Program Files (x86)\Microchip\xc8\v2.00\pic\include\pic16f887.h"
   352                           VRCON equ 097h ;# 
   353  0097                     # 2558 "C:\Program Files (x86)\Microchip\xc8\v2.00\pic\include\pic16f887.h"
   354                           TXSTA equ 098h ;# 
   355  0098                     # 2644 "C:\Program Files (x86)\Microchip\xc8\v2.00\pic\include\pic16f887.h"
   356                           SPBRG equ 099h ;# 
   357  0099                     # 2706 "C:\Program Files (x86)\Microchip\xc8\v2.00\pic\include\pic16f887.h"
   358                           SPBRGH equ 09Ah ;# 
   359  009A                     # 2776 "C:\Program Files (x86)\Microchip\xc8\v2.00\pic\include\pic16f887.h"
   360                           PWM1CON equ 09Bh ;# 
   361  009B                     # 2846 "C:\Program Files (x86)\Microchip\xc8\v2.00\pic\include\pic16f887.h"
   362                           ECCPAS equ 09Ch ;# 
   363  009C                     # 2928 "C:\Program Files (x86)\Microchip\xc8\v2.00\pic\include\pic16f887.h"
   364                           PSTRCON equ 09Dh ;# 
   365  009D                     # 2972 "C:\Program Files (x86)\Microchip\xc8\v2.00\pic\include\pic16f887.h"
   366                           ADRESL equ 09Eh ;# 
   367  009E                     # 2979 "C:\Program Files (x86)\Microchip\xc8\v2.00\pic\include\pic16f887.h"
   368                           ADCON1 equ 09Fh ;# 
   369  009F                     # 3013 "C:\Program Files (x86)\Microchip\xc8\v2.00\pic\include\pic16f887.h"
   370                           WDTCON equ 0105h ;# 
   371  0105                     # 3066 "C:\Program Files (x86)\Microchip\xc8\v2.00\pic\include\pic16f887.h"
   372                           CM1CON0 equ 0107h ;# 
   373  0107                     # 3131 "C:\Program Files (x86)\Microchip\xc8\v2.00\pic\include\pic16f887.h"
   374                           CM2CON0 equ 0108h ;# 
   375  0108                     # 3196 "C:\Program Files (x86)\Microchip\xc8\v2.00\pic\include\pic16f887.h"
   376                           CM2CON1 equ 0109h ;# 
   377  0109                     # 3247 "C:\Program Files (x86)\Microchip\xc8\v2.00\pic\include\pic16f887.h"
   378                           EEDATA equ 010Ch ;# 
   379  010C                     # 3252 "C:\Program Files (x86)\Microchip\xc8\v2.00\pic\include\pic16f887.h"
   380                           EEDAT equ 010Ch ;# 
   381  010C                     # 3259 "C:\Program Files (x86)\Microchip\xc8\v2.00\pic\include\pic16f887.h"
   382                           EEADR equ 010Dh ;# 
   383  010D                     # 3266 "C:\Program Files (x86)\Microchip\xc8\v2.00\pic\include\pic16f887.h"
   384                           EEDATH equ 010Eh ;# 
   385  010E                     # 3273 "C:\Program Files (x86)\Microchip\xc8\v2.00\pic\include\pic16f887.h"
   386                           EEADRH equ 010Fh ;# 
   387  010F                     # 3280 "C:\Program Files (x86)\Microchip\xc8\v2.00\pic\include\pic16f887.h"
   388                           SRCON equ 0185h ;# 
   389  0185                     # 3337 "C:\Program Files (x86)\Microchip\xc8\v2.00\pic\include\pic16f887.h"
   390                           BAUDCTL equ 0187h ;# 
   391  0187                     # 3389 "C:\Program Files (x86)\Microchip\xc8\v2.00\pic\include\pic16f887.h"
   392                           ANSEL equ 0188h ;# 
   393  0188                     # 3451 "C:\Program Files (x86)\Microchip\xc8\v2.00\pic\include\pic16f887.h"
   394                           ANSELH equ 0189h ;# 
   395  0189                     # 3501 "C:\Program Files (x86)\Microchip\xc8\v2.00\pic\include\pic16f887.h"
   396                           EECON1 equ 018Ch ;# 
   397  018C                     # 3546 "C:\Program Files (x86)\Microchip\xc8\v2.00\pic\include\pic16f887.h"
   398                           EECON2 equ 018Dh ;# 
   399  018D                     # 54 "C:\Program Files (x86)\Microchip\xc8\v2.00\pic\include\pic16f887.h"
   400                           INDF equ 00h ;# 
   401  0000                     # 61 "C:\Program Files (x86)\Microchip\xc8\v2.00\pic\include\pic16f887.h"
   402                           TMR0 equ 01h ;# 
   403  0001                     # 68 "C:\Program Files (x86)\Microchip\xc8\v2.00\pic\include\pic16f887.h"
   404                           PCL equ 02h ;# 
   405  0002                     # 75 "C:\Program Files (x86)\Microchip\xc8\v2.00\pic\include\pic16f887.h"
   406                           STATUS equ 03h ;# 
   407  0003                     # 161 "C:\Program Files (x86)\Microchip\xc8\v2.00\pic\include\pic16f887.h"
   408                           FSR equ 04h ;# 
   409  0004                     # 168 "C:\Program Files (x86)\Microchip\xc8\v2.00\pic\include\pic16f887.h"
   410                           PORTA equ 05h ;# 
   411  0005                     # 230 "C:\Program Files (x86)\Microchip\xc8\v2.00\pic\include\pic16f887.h"
   412                           PORTB equ 06h ;# 
   413  0006                     # 292 "C:\Program Files (x86)\Microchip\xc8\v2.00\pic\include\pic16f887.h"
   414                           PORTC equ 07h ;# 
   415  0007                     # 354 "C:\Program Files (x86)\Microchip\xc8\v2.00\pic\include\pic16f887.h"
   416                           PORTD equ 08h ;# 
   417  0008                     # 416 "C:\Program Files (x86)\Microchip\xc8\v2.00\pic\include\pic16f887.h"
   418                           PORTE equ 09h ;# 
   419  0009                     # 454 "C:\Program Files (x86)\Microchip\xc8\v2.00\pic\include\pic16f887.h"
   420                           PCLATH equ 0Ah ;# 
   421  000A                     # 461 "C:\Program Files (x86)\Microchip\xc8\v2.00\pic\include\pic16f887.h"
   422                           INTCON equ 0Bh ;# 
   423  000B                     # 539 "C:\Program Files (x86)\Microchip\xc8\v2.00\pic\include\pic16f887.h"
   424                           PIR1 equ 0Ch ;# 
   425  000C                     # 595 "C:\Program Files (x86)\Microchip\xc8\v2.00\pic\include\pic16f887.h"
   426                           PIR2 equ 0Dh ;# 
   427  000D                     # 652 "C:\Program Files (x86)\Microchip\xc8\v2.00\pic\include\pic16f887.h"
   428                           TMR1 equ 0Eh ;# 
   429  000E                     # 659 "C:\Program Files (x86)\Microchip\xc8\v2.00\pic\include\pic16f887.h"
   430                           TMR1L equ 0Eh ;# 
   431  000E                     # 666 "C:\Program Files (x86)\Microchip\xc8\v2.00\pic\include\pic16f887.h"
   432                           TMR1H equ 0Fh ;# 
   433  000F                     # 673 "C:\Program Files (x86)\Microchip\xc8\v2.00\pic\include\pic16f887.h"
   434                           T1CON equ 010h ;# 
   435  0010                     # 767 "C:\Program Files (x86)\Microchip\xc8\v2.00\pic\include\pic16f887.h"
   436                           TMR2 equ 011h ;# 
   437  0011                     # 774 "C:\Program Files (x86)\Microchip\xc8\v2.00\pic\include\pic16f887.h"
   438                           T2CON equ 012h ;# 
   439  0012                     # 845 "C:\Program Files (x86)\Microchip\xc8\v2.00\pic\include\pic16f887.h"
   440                           SSPBUF equ 013h ;# 
   441  0013                     # 852 "C:\Program Files (x86)\Microchip\xc8\v2.00\pic\include\pic16f887.h"
   442                           SSPCON equ 014h ;# 
   443  0014                     # 922 "C:\Program Files (x86)\Microchip\xc8\v2.00\pic\include\pic16f887.h"
   444                           CCPR1 equ 015h ;# 
   445  0015                     # 929 "C:\Program Files (x86)\Microchip\xc8\v2.00\pic\include\pic16f887.h"
   446                           CCPR1L equ 015h ;# 
   447  0015                     # 936 "C:\Program Files (x86)\Microchip\xc8\v2.00\pic\include\pic16f887.h"
   448                           CCPR1H equ 016h ;# 
   449  0016                     # 943 "C:\Program Files (x86)\Microchip\xc8\v2.00\pic\include\pic16f887.h"
   450                           CCP1CON equ 017h ;# 
   451  0017                     # 1040 "C:\Program Files (x86)\Microchip\xc8\v2.00\pic\include\pic16f887.h"
   452                           RCSTA equ 018h ;# 
   453  0018                     # 1135 "C:\Program Files (x86)\Microchip\xc8\v2.00\pic\include\pic16f887.h"
   454                           TXREG equ 019h ;# 
   455  0019                     # 1142 "C:\Program Files (x86)\Microchip\xc8\v2.00\pic\include\pic16f887.h"
   456                           RCREG equ 01Ah ;# 
   457  001A                     # 1149 "C:\Program Files (x86)\Microchip\xc8\v2.00\pic\include\pic16f887.h"
   458                           CCPR2 equ 01Bh ;# 
   459  001B                     # 1156 "C:\Program Files (x86)\Microchip\xc8\v2.00\pic\include\pic16f887.h"
   460                           CCPR2L equ 01Bh ;# 
   461  001B                     # 1163 "C:\Program Files (x86)\Microchip\xc8\v2.00\pic\include\pic16f887.h"
   462                           CCPR2H equ 01Ch ;# 
   463  001C                     # 1170 "C:\Program Files (x86)\Microchip\xc8\v2.00\pic\include\pic16f887.h"
   464                           CCP2CON equ 01Dh ;# 
   465  001D                     # 1240 "C:\Program Files (x86)\Microchip\xc8\v2.00\pic\include\pic16f887.h"
   466                           ADRESH equ 01Eh ;# 
   467  001E                     # 1247 "C:\Program Files (x86)\Microchip\xc8\v2.00\pic\include\pic16f887.h"
   468                           ADCON0 equ 01Fh ;# 
   469  001F                     # 1348 "C:\Program Files (x86)\Microchip\xc8\v2.00\pic\include\pic16f887.h"
   470                           OPTION_REG equ 081h ;# 
   471  0081                     # 1418 "C:\Program Files (x86)\Microchip\xc8\v2.00\pic\include\pic16f887.h"
   472                           TRISA equ 085h ;# 
   473  0085                     # 1480 "C:\Program Files (x86)\Microchip\xc8\v2.00\pic\include\pic16f887.h"
   474                           TRISB equ 086h ;# 
   475  0086                     # 1542 "C:\Program Files (x86)\Microchip\xc8\v2.00\pic\include\pic16f887.h"
   476                           TRISC equ 087h ;# 
   477  0087                     # 1604 "C:\Program Files (x86)\Microchip\xc8\v2.00\pic\include\pic16f887.h"
   478                           TRISD equ 088h ;# 
   479  0088                     # 1666 "C:\Program Files (x86)\Microchip\xc8\v2.00\pic\include\pic16f887.h"
   480                           TRISE equ 089h ;# 
   481  0089                     # 1704 "C:\Program Files (x86)\Microchip\xc8\v2.00\pic\include\pic16f887.h"
   482                           PIE1 equ 08Ch ;# 
   483  008C                     # 1760 "C:\Program Files (x86)\Microchip\xc8\v2.00\pic\include\pic16f887.h"
   484                           PIE2 equ 08Dh ;# 
   485  008D                     # 1817 "C:\Program Files (x86)\Microchip\xc8\v2.00\pic\include\pic16f887.h"
   486                           PCON equ 08Eh ;# 
   487  008E                     # 1864 "C:\Program Files (x86)\Microchip\xc8\v2.00\pic\include\pic16f887.h"
   488                           OSCCON equ 08Fh ;# 
   489  008F                     # 1929 "C:\Program Files (x86)\Microchip\xc8\v2.00\pic\include\pic16f887.h"
   490                           OSCTUNE equ 090h ;# 
   491  0090                     # 1981 "C:\Program Files (x86)\Microchip\xc8\v2.00\pic\include\pic16f887.h"
   492                           SSPCON2 equ 091h ;# 
   493  0091                     # 2043 "C:\Program Files (x86)\Microchip\xc8\v2.00\pic\include\pic16f887.h"
   494                           PR2 equ 092h ;# 
   495  0092                     # 2050 "C:\Program Files (x86)\Microchip\xc8\v2.00\pic\include\pic16f887.h"
   496                           SSPADD equ 093h ;# 
   497  0093                     # 2057 "C:\Program Files (x86)\Microchip\xc8\v2.00\pic\include\pic16f887.h"
   498                           SSPMSK equ 093h ;# 
   499  0093                     # 2062 "C:\Program Files (x86)\Microchip\xc8\v2.00\pic\include\pic16f887.h"
   500                           MSK equ 093h ;# 
   501  0093                     # 2179 "C:\Program Files (x86)\Microchip\xc8\v2.00\pic\include\pic16f887.h"
   502                           SSPSTAT equ 094h ;# 
   503  0094                     # 2348 "C:\Program Files (x86)\Microchip\xc8\v2.00\pic\include\pic16f887.h"
   504                           WPUB equ 095h ;# 
   505  0095                     # 2418 "C:\Program Files (x86)\Microchip\xc8\v2.00\pic\include\pic16f887.h"
   506                           IOCB equ 096h ;# 
   507  0096                     # 2488 "C:\Program Files (x86)\Microchip\xc8\v2.00\pic\include\pic16f887.h"
   508                           VRCON equ 097h ;# 
   509  0097                     # 2558 "C:\Program Files (x86)\Microchip\xc8\v2.00\pic\include\pic16f887.h"
   510                           TXSTA equ 098h ;# 
   511  0098                     # 2644 "C:\Program Files (x86)\Microchip\xc8\v2.00\pic\include\pic16f887.h"
   512                           SPBRG equ 099h ;# 
   513  0099                     # 2706 "C:\Program Files (x86)\Microchip\xc8\v2.00\pic\include\pic16f887.h"
   514                           SPBRGH equ 09Ah ;# 
   515  009A                     # 2776 "C:\Program Files (x86)\Microchip\xc8\v2.00\pic\include\pic16f887.h"
   516                           PWM1CON equ 09Bh ;# 
   517  009B                     # 2846 "C:\Program Files (x86)\Microchip\xc8\v2.00\pic\include\pic16f887.h"
   518                           ECCPAS equ 09Ch ;# 
   519  009C                     # 2928 "C:\Program Files (x86)\Microchip\xc8\v2.00\pic\include\pic16f887.h"
   520                           PSTRCON equ 09Dh ;# 
   521  009D                     # 2972 "C:\Program Files (x86)\Microchip\xc8\v2.00\pic\include\pic16f887.h"
   522                           ADRESL equ 09Eh ;# 
   523  009E                     # 2979 "C:\Program Files (x86)\Microchip\xc8\v2.00\pic\include\pic16f887.h"
   524                           ADCON1 equ 09Fh ;# 
   525  009F                     # 3013 "C:\Program Files (x86)\Microchip\xc8\v2.00\pic\include\pic16f887.h"
   526                           WDTCON equ 0105h ;# 
   527  0105                     # 3066 "C:\Program Files (x86)\Microchip\xc8\v2.00\pic\include\pic16f887.h"
   528                           CM1CON0 equ 0107h ;# 
   529  0107                     # 3131 "C:\Program Files (x86)\Microchip\xc8\v2.00\pic\include\pic16f887.h"
   530                           CM2CON0 equ 0108h ;# 
   531  0108                     # 3196 "C:\Program Files (x86)\Microchip\xc8\v2.00\pic\include\pic16f887.h"
   532                           CM2CON1 equ 0109h ;# 
   533  0109                     # 3247 "C:\Program Files (x86)\Microchip\xc8\v2.00\pic\include\pic16f887.h"
   534                           EEDATA equ 010Ch ;# 
   535  010C                     # 3252 "C:\Program Files (x86)\Microchip\xc8\v2.00\pic\include\pic16f887.h"
   536                           EEDAT equ 010Ch ;# 
   537  010C                     # 3259 "C:\Program Files (x86)\Microchip\xc8\v2.00\pic\include\pic16f887.h"
   538                           EEADR equ 010Dh ;# 
   539  010D                     # 3266 "C:\Program Files (x86)\Microchip\xc8\v2.00\pic\include\pic16f887.h"
   540                           EEDATH equ 010Eh ;# 
   541  010E                     # 3273 "C:\Program Files (x86)\Microchip\xc8\v2.00\pic\include\pic16f887.h"
   542                           EEADRH equ 010Fh ;# 
   543  010F                     # 3280 "C:\Program Files (x86)\Microchip\xc8\v2.00\pic\include\pic16f887.h"
   544                           SRCON equ 0185h ;# 
   545  0185                     # 3337 "C:\Program Files (x86)\Microchip\xc8\v2.00\pic\include\pic16f887.h"
   546                           BAUDCTL equ 0187h ;# 
   547  0187                     # 3389 "C:\Program Files (x86)\Microchip\xc8\v2.00\pic\include\pic16f887.h"
   548                           ANSEL equ 0188h ;# 
   549  0188                     # 3451 "C:\Program Files (x86)\Microchip\xc8\v2.00\pic\include\pic16f887.h"
   550                           ANSELH equ 0189h ;# 
   551  0189                     # 3501 "C:\Program Files (x86)\Microchip\xc8\v2.00\pic\include\pic16f887.h"
   552                           EECON1 equ 018Ch ;# 
   553  018C                     # 3546 "C:\Program Files (x86)\Microchip\xc8\v2.00\pic\include\pic16f887.h"
   554                           EECON2 equ 018Dh ;# 
   555  018D                     # 54 "C:\Program Files (x86)\Microchip\xc8\v2.00\pic\include\pic16f887.h"
   556                           INDF equ 00h ;# 
   557  0000                     # 61 "C:\Program Files (x86)\Microchip\xc8\v2.00\pic\include\pic16f887.h"
   558                           TMR0 equ 01h ;# 
   559  0001                     # 68 "C:\Program Files (x86)\Microchip\xc8\v2.00\pic\include\pic16f887.h"
   560                           PCL equ 02h ;# 
   561  0002                     # 75 "C:\Program Files (x86)\Microchip\xc8\v2.00\pic\include\pic16f887.h"
   562                           STATUS equ 03h ;# 
   563  0003                     # 161 "C:\Program Files (x86)\Microchip\xc8\v2.00\pic\include\pic16f887.h"
   564                           FSR equ 04h ;# 
   565  0004                     # 168 "C:\Program Files (x86)\Microchip\xc8\v2.00\pic\include\pic16f887.h"
   566                           PORTA equ 05h ;# 
   567  0005                     # 230 "C:\Program Files (x86)\Microchip\xc8\v2.00\pic\include\pic16f887.h"
   568                           PORTB equ 06h ;# 
   569  0006                     # 292 "C:\Program Files (x86)\Microchip\xc8\v2.00\pic\include\pic16f887.h"
   570                           PORTC equ 07h ;# 
   571  0007                     # 354 "C:\Program Files (x86)\Microchip\xc8\v2.00\pic\include\pic16f887.h"
   572                           PORTD equ 08h ;# 
   573  0008                     # 416 "C:\Program Files (x86)\Microchip\xc8\v2.00\pic\include\pic16f887.h"
   574                           PORTE equ 09h ;# 
   575  0009                     # 454 "C:\Program Files (x86)\Microchip\xc8\v2.00\pic\include\pic16f887.h"
   576                           PCLATH equ 0Ah ;# 
   577  000A                     # 461 "C:\Program Files (x86)\Microchip\xc8\v2.00\pic\include\pic16f887.h"
   578                           INTCON equ 0Bh ;# 
   579  000B                     # 539 "C:\Program Files (x86)\Microchip\xc8\v2.00\pic\include\pic16f887.h"
   580                           PIR1 equ 0Ch ;# 
   581  000C                     # 595 "C:\Program Files (x86)\Microchip\xc8\v2.00\pic\include\pic16f887.h"
   582                           PIR2 equ 0Dh ;# 
   583  000D                     # 652 "C:\Program Files (x86)\Microchip\xc8\v2.00\pic\include\pic16f887.h"
   584                           TMR1 equ 0Eh ;# 
   585  000E                     # 659 "C:\Program Files (x86)\Microchip\xc8\v2.00\pic\include\pic16f887.h"
   586                           TMR1L equ 0Eh ;# 
   587  000E                     # 666 "C:\Program Files (x86)\Microchip\xc8\v2.00\pic\include\pic16f887.h"
   588                           TMR1H equ 0Fh ;# 
   589  000F                     # 673 "C:\Program Files (x86)\Microchip\xc8\v2.00\pic\include\pic16f887.h"
   590                           T1CON equ 010h ;# 
   591  0010                     # 767 "C:\Program Files (x86)\Microchip\xc8\v2.00\pic\include\pic16f887.h"
   592                           TMR2 equ 011h ;# 
   593  0011                     # 774 "C:\Program Files (x86)\Microchip\xc8\v2.00\pic\include\pic16f887.h"
   594                           T2CON equ 012h ;# 
   595  0012                     # 845 "C:\Program Files (x86)\Microchip\xc8\v2.00\pic\include\pic16f887.h"
   596                           SSPBUF equ 013h ;# 
   597  0013                     # 852 "C:\Program Files (x86)\Microchip\xc8\v2.00\pic\include\pic16f887.h"
   598                           SSPCON equ 014h ;# 
   599  0014                     # 922 "C:\Program Files (x86)\Microchip\xc8\v2.00\pic\include\pic16f887.h"
   600                           CCPR1 equ 015h ;# 
   601  0015                     # 929 "C:\Program Files (x86)\Microchip\xc8\v2.00\pic\include\pic16f887.h"
   602                           CCPR1L equ 015h ;# 
   603  0015                     # 936 "C:\Program Files (x86)\Microchip\xc8\v2.00\pic\include\pic16f887.h"
   604                           CCPR1H equ 016h ;# 
   605  0016                     # 943 "C:\Program Files (x86)\Microchip\xc8\v2.00\pic\include\pic16f887.h"
   606                           CCP1CON equ 017h ;# 
   607  0017                     # 1040 "C:\Program Files (x86)\Microchip\xc8\v2.00\pic\include\pic16f887.h"
   608                           RCSTA equ 018h ;# 
   609  0018                     # 1135 "C:\Program Files (x86)\Microchip\xc8\v2.00\pic\include\pic16f887.h"
   610                           TXREG equ 019h ;# 
   611  0019                     # 1142 "C:\Program Files (x86)\Microchip\xc8\v2.00\pic\include\pic16f887.h"
   612                           RCREG equ 01Ah ;# 
   613  001A                     # 1149 "C:\Program Files (x86)\Microchip\xc8\v2.00\pic\include\pic16f887.h"
   614                           CCPR2 equ 01Bh ;# 
   615  001B                     # 1156 "C:\Program Files (x86)\Microchip\xc8\v2.00\pic\include\pic16f887.h"
   616                           CCPR2L equ 01Bh ;# 
   617  001B                     # 1163 "C:\Program Files (x86)\Microchip\xc8\v2.00\pic\include\pic16f887.h"
   618                           CCPR2H equ 01Ch ;# 
   619  001C                     # 1170 "C:\Program Files (x86)\Microchip\xc8\v2.00\pic\include\pic16f887.h"
   620                           CCP2CON equ 01Dh ;# 
   621  001D                     # 1240 "C:\Program Files (x86)\Microchip\xc8\v2.00\pic\include\pic16f887.h"
   622                           ADRESH equ 01Eh ;# 
   623  001E                     # 1247 "C:\Program Files (x86)\Microchip\xc8\v2.00\pic\include\pic16f887.h"
   624                           ADCON0 equ 01Fh ;# 
   625  001F                     # 1348 "C:\Program Files (x86)\Microchip\xc8\v2.00\pic\include\pic16f887.h"
   626                           OPTION_REG equ 081h ;# 
   627  0081                     # 1418 "C:\Program Files (x86)\Microchip\xc8\v2.00\pic\include\pic16f887.h"
   628                           TRISA equ 085h ;# 
   629  0085                     # 1480 "C:\Program Files (x86)\Microchip\xc8\v2.00\pic\include\pic16f887.h"
   630                           TRISB equ 086h ;# 
   631  0086                     # 1542 "C:\Program Files (x86)\Microchip\xc8\v2.00\pic\include\pic16f887.h"
   632                           TRISC equ 087h ;# 
   633  0087                     # 1604 "C:\Program Files (x86)\Microchip\xc8\v2.00\pic\include\pic16f887.h"
   634                           TRISD equ 088h ;# 
   635  0088                     # 1666 "C:\Program Files (x86)\Microchip\xc8\v2.00\pic\include\pic16f887.h"
   636                           TRISE equ 089h ;# 
   637  0089                     # 1704 "C:\Program Files (x86)\Microchip\xc8\v2.00\pic\include\pic16f887.h"
   638                           PIE1 equ 08Ch ;# 
   639  008C                     # 1760 "C:\Program Files (x86)\Microchip\xc8\v2.00\pic\include\pic16f887.h"
   640                           PIE2 equ 08Dh ;# 
   641  008D                     # 1817 "C:\Program Files (x86)\Microchip\xc8\v2.00\pic\include\pic16f887.h"
   642                           PCON equ 08Eh ;# 
   643  008E                     # 1864 "C:\Program Files (x86)\Microchip\xc8\v2.00\pic\include\pic16f887.h"
   644                           OSCCON equ 08Fh ;# 
   645  008F                     # 1929 "C:\Program Files (x86)\Microchip\xc8\v2.00\pic\include\pic16f887.h"
   646                           OSCTUNE equ 090h ;# 
   647  0090                     # 1981 "C:\Program Files (x86)\Microchip\xc8\v2.00\pic\include\pic16f887.h"
   648                           SSPCON2 equ 091h ;# 
   649  0091                     # 2043 "C:\Program Files (x86)\Microchip\xc8\v2.00\pic\include\pic16f887.h"
   650                           PR2 equ 092h ;# 
   651  0092                     # 2050 "C:\Program Files (x86)\Microchip\xc8\v2.00\pic\include\pic16f887.h"
   652                           SSPADD equ 093h ;# 
   653  0093                     # 2057 "C:\Program Files (x86)\Microchip\xc8\v2.00\pic\include\pic16f887.h"
   654                           SSPMSK equ 093h ;# 
   655  0093                     # 2062 "C:\Program Files (x86)\Microchip\xc8\v2.00\pic\include\pic16f887.h"
   656                           MSK equ 093h ;# 
   657  0093                     # 2179 "C:\Program Files (x86)\Microchip\xc8\v2.00\pic\include\pic16f887.h"
   658                           SSPSTAT equ 094h ;# 
   659  0094                     # 2348 "C:\Program Files (x86)\Microchip\xc8\v2.00\pic\include\pic16f887.h"
   660                           WPUB equ 095h ;# 
   661  0095                     # 2418 "C:\Program Files (x86)\Microchip\xc8\v2.00\pic\include\pic16f887.h"
   662                           IOCB equ 096h ;# 
   663  0096                     # 2488 "C:\Program Files (x86)\Microchip\xc8\v2.00\pic\include\pic16f887.h"
   664                           VRCON equ 097h ;# 
   665  0097                     # 2558 "C:\Program Files (x86)\Microchip\xc8\v2.00\pic\include\pic16f887.h"
   666                           TXSTA equ 098h ;# 
   667  0098                     # 2644 "C:\Program Files (x86)\Microchip\xc8\v2.00\pic\include\pic16f887.h"
   668                           SPBRG equ 099h ;# 
   669  0099                     # 2706 "C:\Program Files (x86)\Microchip\xc8\v2.00\pic\include\pic16f887.h"
   670                           SPBRGH equ 09Ah ;# 
   671  009A                     # 2776 "C:\Program Files (x86)\Microchip\xc8\v2.00\pic\include\pic16f887.h"
   672                           PWM1CON equ 09Bh ;# 
   673  009B                     # 2846 "C:\Program Files (x86)\Microchip\xc8\v2.00\pic\include\pic16f887.h"
   674                           ECCPAS equ 09Ch ;# 
   675  009C                     # 2928 "C:\Program Files (x86)\Microchip\xc8\v2.00\pic\include\pic16f887.h"
   676                           PSTRCON equ 09Dh ;# 
   677  009D                     # 2972 "C:\Program Files (x86)\Microchip\xc8\v2.00\pic\include\pic16f887.h"
   678                           ADRESL equ 09Eh ;# 
   679  009E                     # 2979 "C:\Program Files (x86)\Microchip\xc8\v2.00\pic\include\pic16f887.h"
   680                           ADCON1 equ 09Fh ;# 
   681  009F                     # 3013 "C:\Program Files (x86)\Microchip\xc8\v2.00\pic\include\pic16f887.h"
   682                           WDTCON equ 0105h ;# 
   683  0105                     # 3066 "C:\Program Files (x86)\Microchip\xc8\v2.00\pic\include\pic16f887.h"
   684                           CM1CON0 equ 0107h ;# 
   685  0107                     # 3131 "C:\Program Files (x86)\Microchip\xc8\v2.00\pic\include\pic16f887.h"
   686                           CM2CON0 equ 0108h ;# 
   687  0108                     # 3196 "C:\Program Files (x86)\Microchip\xc8\v2.00\pic\include\pic16f887.h"
   688                           CM2CON1 equ 0109h ;# 
   689  0109                     # 3247 "C:\Program Files (x86)\Microchip\xc8\v2.00\pic\include\pic16f887.h"
   690                           EEDATA equ 010Ch ;# 
   691  010C                     # 3252 "C:\Program Files (x86)\Microchip\xc8\v2.00\pic\include\pic16f887.h"
   692                           EEDAT equ 010Ch ;# 
   693  010C                     # 3259 "C:\Program Files (x86)\Microchip\xc8\v2.00\pic\include\pic16f887.h"
   694                           EEADR equ 010Dh ;# 
   695  010D                     # 3266 "C:\Program Files (x86)\Microchip\xc8\v2.00\pic\include\pic16f887.h"
   696                           EEDATH equ 010Eh ;# 
   697  010E                     # 3273 "C:\Program Files (x86)\Microchip\xc8\v2.00\pic\include\pic16f887.h"
   698                           EEADRH equ 010Fh ;# 
   699  010F                     # 3280 "C:\Program Files (x86)\Microchip\xc8\v2.00\pic\include\pic16f887.h"
   700                           SRCON equ 0185h ;# 
   701  0185                     # 3337 "C:\Program Files (x86)\Microchip\xc8\v2.00\pic\include\pic16f887.h"
   702                           BAUDCTL equ 0187h ;# 
   703  0187                     # 3389 "C:\Program Files (x86)\Microchip\xc8\v2.00\pic\include\pic16f887.h"
   704                           ANSEL equ 0188h ;# 
   705  0188                     # 3451 "C:\Program Files (x86)\Microchip\xc8\v2.00\pic\include\pic16f887.h"
   706                           ANSELH equ 0189h ;# 
   707  0189                     # 3501 "C:\Program Files (x86)\Microchip\xc8\v2.00\pic\include\pic16f887.h"
   708                           EECON1 equ 018Ch ;# 
   709  018C                     # 3546 "C:\Program Files (x86)\Microchip\xc8\v2.00\pic\include\pic16f887.h"
   710                           EECON2 equ 018Dh ;# 
   711  018D                     # 54 "C:\Program Files (x86)\Microchip\xc8\v2.00\pic\include\pic16f887.h"
   712                           INDF equ 00h ;# 
   713  0000                     # 61 "C:\Program Files (x86)\Microchip\xc8\v2.00\pic\include\pic16f887.h"
   714                           TMR0 equ 01h ;# 
   715  0001                     # 68 "C:\Program Files (x86)\Microchip\xc8\v2.00\pic\include\pic16f887.h"
   716                           PCL equ 02h ;# 
   717  0002                     # 75 "C:\Program Files (x86)\Microchip\xc8\v2.00\pic\include\pic16f887.h"
   718                           STATUS equ 03h ;# 
   719  0003                     # 161 "C:\Program Files (x86)\Microchip\xc8\v2.00\pic\include\pic16f887.h"
   720                           FSR equ 04h ;# 
   721  0004                     # 168 "C:\Program Files (x86)\Microchip\xc8\v2.00\pic\include\pic16f887.h"
   722                           PORTA equ 05h ;# 
   723  0005                     # 230 "C:\Program Files (x86)\Microchip\xc8\v2.00\pic\include\pic16f887.h"
   724                           PORTB equ 06h ;# 
   725  0006                     # 292 "C:\Program Files (x86)\Microchip\xc8\v2.00\pic\include\pic16f887.h"
   726                           PORTC equ 07h ;# 
   727  0007                     # 354 "C:\Program Files (x86)\Microchip\xc8\v2.00\pic\include\pic16f887.h"
   728                           PORTD equ 08h ;# 
   729  0008                     # 416 "C:\Program Files (x86)\Microchip\xc8\v2.00\pic\include\pic16f887.h"
   730                           PORTE equ 09h ;# 
   731  0009                     # 454 "C:\Program Files (x86)\Microchip\xc8\v2.00\pic\include\pic16f887.h"
   732                           PCLATH equ 0Ah ;# 
   733  000A                     # 461 "C:\Program Files (x86)\Microchip\xc8\v2.00\pic\include\pic16f887.h"
   734                           INTCON equ 0Bh ;# 
   735  000B                     # 539 "C:\Program Files (x86)\Microchip\xc8\v2.00\pic\include\pic16f887.h"
   736                           PIR1 equ 0Ch ;# 
   737  000C                     # 595 "C:\Program Files (x86)\Microchip\xc8\v2.00\pic\include\pic16f887.h"
   738                           PIR2 equ 0Dh ;# 
   739  000D                     # 652 "C:\Program Files (x86)\Microchip\xc8\v2.00\pic\include\pic16f887.h"
   740                           TMR1 equ 0Eh ;# 
   741  000E                     # 659 "C:\Program Files (x86)\Microchip\xc8\v2.00\pic\include\pic16f887.h"
   742                           TMR1L equ 0Eh ;# 
   743  000E                     # 666 "C:\Program Files (x86)\Microchip\xc8\v2.00\pic\include\pic16f887.h"
   744                           TMR1H equ 0Fh ;# 
   745  000F                     # 673 "C:\Program Files (x86)\Microchip\xc8\v2.00\pic\include\pic16f887.h"
   746                           T1CON equ 010h ;# 
   747  0010                     # 767 "C:\Program Files (x86)\Microchip\xc8\v2.00\pic\include\pic16f887.h"
   748                           TMR2 equ 011h ;# 
   749  0011                     # 774 "C:\Program Files (x86)\Microchip\xc8\v2.00\pic\include\pic16f887.h"
   750                           T2CON equ 012h ;# 
   751  0012                     # 845 "C:\Program Files (x86)\Microchip\xc8\v2.00\pic\include\pic16f887.h"
   752                           SSPBUF equ 013h ;# 
   753  0013                     # 852 "C:\Program Files (x86)\Microchip\xc8\v2.00\pic\include\pic16f887.h"
   754                           SSPCON equ 014h ;# 
   755  0014                     # 922 "C:\Program Files (x86)\Microchip\xc8\v2.00\pic\include\pic16f887.h"
   756                           CCPR1 equ 015h ;# 
   757  0015                     # 929 "C:\Program Files (x86)\Microchip\xc8\v2.00\pic\include\pic16f887.h"
   758                           CCPR1L equ 015h ;# 
   759  0015                     # 936 "C:\Program Files (x86)\Microchip\xc8\v2.00\pic\include\pic16f887.h"
   760                           CCPR1H equ 016h ;# 
   761  0016                     # 943 "C:\Program Files (x86)\Microchip\xc8\v2.00\pic\include\pic16f887.h"
   762                           CCP1CON equ 017h ;# 
   763  0017                     # 1040 "C:\Program Files (x86)\Microchip\xc8\v2.00\pic\include\pic16f887.h"
   764                           RCSTA equ 018h ;# 
   765  0018                     # 1135 "C:\Program Files (x86)\Microchip\xc8\v2.00\pic\include\pic16f887.h"
   766                           TXREG equ 019h ;# 
   767  0019                     # 1142 "C:\Program Files (x86)\Microchip\xc8\v2.00\pic\include\pic16f887.h"
   768                           RCREG equ 01Ah ;# 
   769  001A                     # 1149 "C:\Program Files (x86)\Microchip\xc8\v2.00\pic\include\pic16f887.h"
   770                           CCPR2 equ 01Bh ;# 
   771  001B                     # 1156 "C:\Program Files (x86)\Microchip\xc8\v2.00\pic\include\pic16f887.h"
   772                           CCPR2L equ 01Bh ;# 
   773  001B                     # 1163 "C:\Program Files (x86)\Microchip\xc8\v2.00\pic\include\pic16f887.h"
   774                           CCPR2H equ 01Ch ;# 
   775  001C                     # 1170 "C:\Program Files (x86)\Microchip\xc8\v2.00\pic\include\pic16f887.h"
   776                           CCP2CON equ 01Dh ;# 
   777  001D                     # 1240 "C:\Program Files (x86)\Microchip\xc8\v2.00\pic\include\pic16f887.h"
   778                           ADRESH equ 01Eh ;# 
   779  001E                     # 1247 "C:\Program Files (x86)\Microchip\xc8\v2.00\pic\include\pic16f887.h"
   780                           ADCON0 equ 01Fh ;# 
   781  001F                     # 1348 "C:\Program Files (x86)\Microchip\xc8\v2.00\pic\include\pic16f887.h"
   782                           OPTION_REG equ 081h ;# 
   783  0081                     # 1418 "C:\Program Files (x86)\Microchip\xc8\v2.00\pic\include\pic16f887.h"
   784                           TRISA equ 085h ;# 
   785  0085                     # 1480 "C:\Program Files (x86)\Microchip\xc8\v2.00\pic\include\pic16f887.h"
   786                           TRISB equ 086h ;# 
   787  0086                     # 1542 "C:\Program Files (x86)\Microchip\xc8\v2.00\pic\include\pic16f887.h"
   788                           TRISC equ 087h ;# 
   789  0087                     # 1604 "C:\Program Files (x86)\Microchip\xc8\v2.00\pic\include\pic16f887.h"
   790                           TRISD equ 088h ;# 
   791  0088                     # 1666 "C:\Program Files (x86)\Microchip\xc8\v2.00\pic\include\pic16f887.h"
   792                           TRISE equ 089h ;# 
   793  0089                     # 1704 "C:\Program Files (x86)\Microchip\xc8\v2.00\pic\include\pic16f887.h"
   794                           PIE1 equ 08Ch ;# 
   795  008C                     # 1760 "C:\Program Files (x86)\Microchip\xc8\v2.00\pic\include\pic16f887.h"
   796                           PIE2 equ 08Dh ;# 
   797  008D                     # 1817 "C:\Program Files (x86)\Microchip\xc8\v2.00\pic\include\pic16f887.h"
   798                           PCON equ 08Eh ;# 
   799  008E                     # 1864 "C:\Program Files (x86)\Microchip\xc8\v2.00\pic\include\pic16f887.h"
   800                           OSCCON equ 08Fh ;# 
   801  008F                     # 1929 "C:\Program Files (x86)\Microchip\xc8\v2.00\pic\include\pic16f887.h"
   802                           OSCTUNE equ 090h ;# 
   803  0090                     # 1981 "C:\Program Files (x86)\Microchip\xc8\v2.00\pic\include\pic16f887.h"
   804                           SSPCON2 equ 091h ;# 
   805  0091                     # 2043 "C:\Program Files (x86)\Microchip\xc8\v2.00\pic\include\pic16f887.h"
   806                           PR2 equ 092h ;# 
   807  0092                     # 2050 "C:\Program Files (x86)\Microchip\xc8\v2.00\pic\include\pic16f887.h"
   808                           SSPADD equ 093h ;# 
   809  0093                     # 2057 "C:\Program Files (x86)\Microchip\xc8\v2.00\pic\include\pic16f887.h"
   810                           SSPMSK equ 093h ;# 
   811  0093                     # 2062 "C:\Program Files (x86)\Microchip\xc8\v2.00\pic\include\pic16f887.h"
   812                           MSK equ 093h ;# 
   813  0093                     # 2179 "C:\Program Files (x86)\Microchip\xc8\v2.00\pic\include\pic16f887.h"
   814                           SSPSTAT equ 094h ;# 
   815  0094                     # 2348 "C:\Program Files (x86)\Microchip\xc8\v2.00\pic\include\pic16f887.h"
   816                           WPUB equ 095h ;# 
   817  0095                     # 2418 "C:\Program Files (x86)\Microchip\xc8\v2.00\pic\include\pic16f887.h"
   818                           IOCB equ 096h ;# 
   819  0096                     # 2488 "C:\Program Files (x86)\Microchip\xc8\v2.00\pic\include\pic16f887.h"
   820                           VRCON equ 097h ;# 
   821  0097                     # 2558 "C:\Program Files (x86)\Microchip\xc8\v2.00\pic\include\pic16f887.h"
   822                           TXSTA equ 098h ;# 
   823  0098                     # 2644 "C:\Program Files (x86)\Microchip\xc8\v2.00\pic\include\pic16f887.h"
   824                           SPBRG equ 099h ;# 
   825  0099                     # 2706 "C:\Program Files (x86)\Microchip\xc8\v2.00\pic\include\pic16f887.h"
   826                           SPBRGH equ 09Ah ;# 
   827  009A                     # 2776 "C:\Program Files (x86)\Microchip\xc8\v2.00\pic\include\pic16f887.h"
   828                           PWM1CON equ 09Bh ;# 
   829  009B                     # 2846 "C:\Program Files (x86)\Microchip\xc8\v2.00\pic\include\pic16f887.h"
   830                           ECCPAS equ 09Ch ;# 
   831  009C                     # 2928 "C:\Program Files (x86)\Microchip\xc8\v2.00\pic\include\pic16f887.h"
   832                           PSTRCON equ 09Dh ;# 
   833  009D                     # 2972 "C:\Program Files (x86)\Microchip\xc8\v2.00\pic\include\pic16f887.h"
   834                           ADRESL equ 09Eh ;# 
   835  009E                     # 2979 "C:\Program Files (x86)\Microchip\xc8\v2.00\pic\include\pic16f887.h"
   836                           ADCON1 equ 09Fh ;# 
   837  009F                     # 3013 "C:\Program Files (x86)\Microchip\xc8\v2.00\pic\include\pic16f887.h"
   838                           WDTCON equ 0105h ;# 
   839  0105                     # 3066 "C:\Program Files (x86)\Microchip\xc8\v2.00\pic\include\pic16f887.h"
   840                           CM1CON0 equ 0107h ;# 
   841  0107                     # 3131 "C:\Program Files (x86)\Microchip\xc8\v2.00\pic\include\pic16f887.h"
   842                           CM2CON0 equ 0108h ;# 
   843  0108                     # 3196 "C:\Program Files (x86)\Microchip\xc8\v2.00\pic\include\pic16f887.h"
   844                           CM2CON1 equ 0109h ;# 
   845  0109                     # 3247 "C:\Program Files (x86)\Microchip\xc8\v2.00\pic\include\pic16f887.h"
   846                           EEDATA equ 010Ch ;# 
   847  010C                     # 3252 "C:\Program Files (x86)\Microchip\xc8\v2.00\pic\include\pic16f887.h"
   848                           EEDAT equ 010Ch ;# 
   849  010C                     # 3259 "C:\Program Files (x86)\Microchip\xc8\v2.00\pic\include\pic16f887.h"
   850                           EEADR equ 010Dh ;# 
   851  010D                     # 3266 "C:\Program Files (x86)\Microchip\xc8\v2.00\pic\include\pic16f887.h"
   852                           EEDATH equ 010Eh ;# 
   853  010E                     # 3273 "C:\Program Files (x86)\Microchip\xc8\v2.00\pic\include\pic16f887.h"
   854                           EEADRH equ 010Fh ;# 
   855  010F                     # 3280 "C:\Program Files (x86)\Microchip\xc8\v2.00\pic\include\pic16f887.h"
   856                           SRCON equ 0185h ;# 
   857  0185                     # 3337 "C:\Program Files (x86)\Microchip\xc8\v2.00\pic\include\pic16f887.h"
   858                           BAUDCTL equ 0187h ;# 
   859  0187                     # 3389 "C:\Program Files (x86)\Microchip\xc8\v2.00\pic\include\pic16f887.h"
   860                           ANSEL equ 0188h ;# 
   861  0188                     # 3451 "C:\Program Files (x86)\Microchip\xc8\v2.00\pic\include\pic16f887.h"
   862                           ANSELH equ 0189h ;# 
   863  0189                     # 3501 "C:\Program Files (x86)\Microchip\xc8\v2.00\pic\include\pic16f887.h"
   864                           EECON1 equ 018Ch ;# 
   865  018C                     # 3546 "C:\Program Files (x86)\Microchip\xc8\v2.00\pic\include\pic16f887.h"
   866                           EECON2 equ 018Dh ;# 
   867  018D                     # 54 "C:\Program Files (x86)\Microchip\xc8\v2.00\pic\include\pic16f887.h"
   868                           INDF equ 00h ;# 
   869  0000                     # 61 "C:\Program Files (x86)\Microchip\xc8\v2.00\pic\include\pic16f887.h"
   870                           TMR0 equ 01h ;# 
   871  0001                     # 68 "C:\Program Files (x86)\Microchip\xc8\v2.00\pic\include\pic16f887.h"
   872                           PCL equ 02h ;# 
   873  0002                     # 75 "C:\Program Files (x86)\Microchip\xc8\v2.00\pic\include\pic16f887.h"
   874                           STATUS equ 03h ;# 
   875  0003                     # 161 "C:\Program Files (x86)\Microchip\xc8\v2.00\pic\include\pic16f887.h"
   876                           FSR equ 04h ;# 
   877  0004                     # 168 "C:\Program Files (x86)\Microchip\xc8\v2.00\pic\include\pic16f887.h"
   878                           PORTA equ 05h ;# 
   879  0005                     # 230 "C:\Program Files (x86)\Microchip\xc8\v2.00\pic\include\pic16f887.h"
   880                           PORTB equ 06h ;# 
   881  0006                     # 292 "C:\Program Files (x86)\Microchip\xc8\v2.00\pic\include\pic16f887.h"
   882                           PORTC equ 07h ;# 
   883  0007                     # 354 "C:\Program Files (x86)\Microchip\xc8\v2.00\pic\include\pic16f887.h"
   884                           PORTD equ 08h ;# 
   885  0008                     # 416 "C:\Program Files (x86)\Microchip\xc8\v2.00\pic\include\pic16f887.h"
   886                           PORTE equ 09h ;# 
   887  0009                     # 454 "C:\Program Files (x86)\Microchip\xc8\v2.00\pic\include\pic16f887.h"
   888                           PCLATH equ 0Ah ;# 
   889  000A                     # 461 "C:\Program Files (x86)\Microchip\xc8\v2.00\pic\include\pic16f887.h"
   890                           INTCON equ 0Bh ;# 
   891  000B                     # 539 "C:\Program Files (x86)\Microchip\xc8\v2.00\pic\include\pic16f887.h"
   892                           PIR1 equ 0Ch ;# 
   893  000C                     # 595 "C:\Program Files (x86)\Microchip\xc8\v2.00\pic\include\pic16f887.h"
   894                           PIR2 equ 0Dh ;# 
   895  000D                     # 652 "C:\Program Files (x86)\Microchip\xc8\v2.00\pic\include\pic16f887.h"
   896                           TMR1 equ 0Eh ;# 
   897  000E                     # 659 "C:\Program Files (x86)\Microchip\xc8\v2.00\pic\include\pic16f887.h"
   898                           TMR1L equ 0Eh ;# 
   899  000E                     # 666 "C:\Program Files (x86)\Microchip\xc8\v2.00\pic\include\pic16f887.h"
   900                           TMR1H equ 0Fh ;# 
   901  000F                     # 673 "C:\Program Files (x86)\Microchip\xc8\v2.00\pic\include\pic16f887.h"
   902                           T1CON equ 010h ;# 
   903  0010                     # 767 "C:\Program Files (x86)\Microchip\xc8\v2.00\pic\include\pic16f887.h"
   904                           TMR2 equ 011h ;# 
   905  0011                     # 774 "C:\Program Files (x86)\Microchip\xc8\v2.00\pic\include\pic16f887.h"
   906                           T2CON equ 012h ;# 
   907  0012                     # 845 "C:\Program Files (x86)\Microchip\xc8\v2.00\pic\include\pic16f887.h"
   908                           SSPBUF equ 013h ;# 
   909  0013                     # 852 "C:\Program Files (x86)\Microchip\xc8\v2.00\pic\include\pic16f887.h"
   910                           SSPCON equ 014h ;# 
   911  0014                     # 922 "C:\Program Files (x86)\Microchip\xc8\v2.00\pic\include\pic16f887.h"
   912                           CCPR1 equ 015h ;# 
   913  0015                     # 929 "C:\Program Files (x86)\Microchip\xc8\v2.00\pic\include\pic16f887.h"
   914                           CCPR1L equ 015h ;# 
   915  0015                     # 936 "C:\Program Files (x86)\Microchip\xc8\v2.00\pic\include\pic16f887.h"
   916                           CCPR1H equ 016h ;# 
   917  0016                     # 943 "C:\Program Files (x86)\Microchip\xc8\v2.00\pic\include\pic16f887.h"
   918                           CCP1CON equ 017h ;# 
   919  0017                     # 1040 "C:\Program Files (x86)\Microchip\xc8\v2.00\pic\include\pic16f887.h"
   920                           RCSTA equ 018h ;# 
   921  0018                     # 1135 "C:\Program Files (x86)\Microchip\xc8\v2.00\pic\include\pic16f887.h"
   922                           TXREG equ 019h ;# 
   923  0019                     # 1142 "C:\Program Files (x86)\Microchip\xc8\v2.00\pic\include\pic16f887.h"
   924                           RCREG equ 01Ah ;# 
   925  001A                     # 1149 "C:\Program Files (x86)\Microchip\xc8\v2.00\pic\include\pic16f887.h"
   926                           CCPR2 equ 01Bh ;# 
   927  001B                     # 1156 "C:\Program Files (x86)\Microchip\xc8\v2.00\pic\include\pic16f887.h"
   928                           CCPR2L equ 01Bh ;# 
   929  001B                     # 1163 "C:\Program Files (x86)\Microchip\xc8\v2.00\pic\include\pic16f887.h"
   930                           CCPR2H equ 01Ch ;# 
   931  001C                     # 1170 "C:\Program Files (x86)\Microchip\xc8\v2.00\pic\include\pic16f887.h"
   932                           CCP2CON equ 01Dh ;# 
   933  001D                     # 1240 "C:\Program Files (x86)\Microchip\xc8\v2.00\pic\include\pic16f887.h"
   934                           ADRESH equ 01Eh ;# 
   935  001E                     # 1247 "C:\Program Files (x86)\Microchip\xc8\v2.00\pic\include\pic16f887.h"
   936                           ADCON0 equ 01Fh ;# 
   937  001F                     # 1348 "C:\Program Files (x86)\Microchip\xc8\v2.00\pic\include\pic16f887.h"
   938                           OPTION_REG equ 081h ;# 
   939  0081                     # 1418 "C:\Program Files (x86)\Microchip\xc8\v2.00\pic\include\pic16f887.h"
   940                           TRISA equ 085h ;# 
   941  0085                     # 1480 "C:\Program Files (x86)\Microchip\xc8\v2.00\pic\include\pic16f887.h"
   942                           TRISB equ 086h ;# 
   943  0086                     # 1542 "C:\Program Files (x86)\Microchip\xc8\v2.00\pic\include\pic16f887.h"
   944                           TRISC equ 087h ;# 
   945  0087                     # 1604 "C:\Program Files (x86)\Microchip\xc8\v2.00\pic\include\pic16f887.h"
   946                           TRISD equ 088h ;# 
   947  0088                     # 1666 "C:\Program Files (x86)\Microchip\xc8\v2.00\pic\include\pic16f887.h"
   948                           TRISE equ 089h ;# 
   949  0089                     # 1704 "C:\Program Files (x86)\Microchip\xc8\v2.00\pic\include\pic16f887.h"
   950                           PIE1 equ 08Ch ;# 
   951  008C                     # 1760 "C:\Program Files (x86)\Microchip\xc8\v2.00\pic\include\pic16f887.h"
   952                           PIE2 equ 08Dh ;# 
   953  008D                     # 1817 "C:\Program Files (x86)\Microchip\xc8\v2.00\pic\include\pic16f887.h"
   954                           PCON equ 08Eh ;# 
   955  008E                     # 1864 "C:\Program Files (x86)\Microchip\xc8\v2.00\pic\include\pic16f887.h"
   956                           OSCCON equ 08Fh ;# 
   957  008F                     # 1929 "C:\Program Files (x86)\Microchip\xc8\v2.00\pic\include\pic16f887.h"
   958                           OSCTUNE equ 090h ;# 
   959  0090                     # 1981 "C:\Program Files (x86)\Microchip\xc8\v2.00\pic\include\pic16f887.h"
   960                           SSPCON2 equ 091h ;# 
   961  0091                     # 2043 "C:\Program Files (x86)\Microchip\xc8\v2.00\pic\include\pic16f887.h"
   962                           PR2 equ 092h ;# 
   963  0092                     # 2050 "C:\Program Files (x86)\Microchip\xc8\v2.00\pic\include\pic16f887.h"
   964                           SSPADD equ 093h ;# 
   965  0093                     # 2057 "C:\Program Files (x86)\Microchip\xc8\v2.00\pic\include\pic16f887.h"
   966                           SSPMSK equ 093h ;# 
   967  0093                     # 2062 "C:\Program Files (x86)\Microchip\xc8\v2.00\pic\include\pic16f887.h"
   968                           MSK equ 093h ;# 
   969  0093                     # 2179 "C:\Program Files (x86)\Microchip\xc8\v2.00\pic\include\pic16f887.h"
   970                           SSPSTAT equ 094h ;# 
   971  0094                     # 2348 "C:\Program Files (x86)\Microchip\xc8\v2.00\pic\include\pic16f887.h"
   972                           WPUB equ 095h ;# 
   973  0095                     # 2418 "C:\Program Files (x86)\Microchip\xc8\v2.00\pic\include\pic16f887.h"
   974                           IOCB equ 096h ;# 
   975  0096                     # 2488 "C:\Program Files (x86)\Microchip\xc8\v2.00\pic\include\pic16f887.h"
   976                           VRCON equ 097h ;# 
   977  0097                     # 2558 "C:\Program Files (x86)\Microchip\xc8\v2.00\pic\include\pic16f887.h"
   978                           TXSTA equ 098h ;# 
   979  0098                     # 2644 "C:\Program Files (x86)\Microchip\xc8\v2.00\pic\include\pic16f887.h"
   980                           SPBRG equ 099h ;# 
   981  0099                     # 2706 "C:\Program Files (x86)\Microchip\xc8\v2.00\pic\include\pic16f887.h"
   982                           SPBRGH equ 09Ah ;# 
   983  009A                     # 2776 "C:\Program Files (x86)\Microchip\xc8\v2.00\pic\include\pic16f887.h"
   984                           PWM1CON equ 09Bh ;# 
   985  009B                     # 2846 "C:\Program Files (x86)\Microchip\xc8\v2.00\pic\include\pic16f887.h"
   986                           ECCPAS equ 09Ch ;# 
   987  009C                     # 2928 "C:\Program Files (x86)\Microchip\xc8\v2.00\pic\include\pic16f887.h"
   988                           PSTRCON equ 09Dh ;# 
   989  009D                     # 2972 "C:\Program Files (x86)\Microchip\xc8\v2.00\pic\include\pic16f887.h"
   990                           ADRESL equ 09Eh ;# 
   991  009E                     # 2979 "C:\Program Files (x86)\Microchip\xc8\v2.00\pic\include\pic16f887.h"
   992                           ADCON1 equ 09Fh ;# 
   993  009F                     # 3013 "C:\Program Files (x86)\Microchip\xc8\v2.00\pic\include\pic16f887.h"
   994                           WDTCON equ 0105h ;# 
   995  0105                     # 3066 "C:\Program Files (x86)\Microchip\xc8\v2.00\pic\include\pic16f887.h"
   996                           CM1CON0 equ 0107h ;# 
   997  0107                     # 3131 "C:\Program Files (x86)\Microchip\xc8\v2.00\pic\include\pic16f887.h"
   998                           CM2CON0 equ 0108h ;# 
   999  0108                     # 3196 "C:\Program Files (x86)\Microchip\xc8\v2.00\pic\include\pic16f887.h"
  1000                           CM2CON1 equ 0109h ;# 
  1001  0109                     # 3247 "C:\Program Files (x86)\Microchip\xc8\v2.00\pic\include\pic16f887.h"
  1002                           EEDATA equ 010Ch ;# 
  1003  010C                     # 3252 "C:\Program Files (x86)\Microchip\xc8\v2.00\pic\include\pic16f887.h"
  1004                           EEDAT equ 010Ch ;# 
  1005  010C                     # 3259 "C:\Program Files (x86)\Microchip\xc8\v2.00\pic\include\pic16f887.h"
  1006                           EEADR equ 010Dh ;# 
  1007  010D                     # 3266 "C:\Program Files (x86)\Microchip\xc8\v2.00\pic\include\pic16f887.h"
  1008                           EEDATH equ 010Eh ;# 
  1009  010E                     # 3273 "C:\Program Files (x86)\Microchip\xc8\v2.00\pic\include\pic16f887.h"
  1010                           EEADRH equ 010Fh ;# 
  1011  010F                     # 3280 "C:\Program Files (x86)\Microchip\xc8\v2.00\pic\include\pic16f887.h"
  1012                           SRCON equ 0185h ;# 
  1013  0185                     # 3337 "C:\Program Files (x86)\Microchip\xc8\v2.00\pic\include\pic16f887.h"
  1014                           BAUDCTL equ 0187h ;# 
  1015  0187                     # 3389 "C:\Program Files (x86)\Microchip\xc8\v2.00\pic\include\pic16f887.h"
  1016                           ANSEL equ 0188h ;# 
  1017  0188                     # 3451 "C:\Program Files (x86)\Microchip\xc8\v2.00\pic\include\pic16f887.h"
  1018                           ANSELH equ 0189h ;# 
  1019  0189                     # 3501 "C:\Program Files (x86)\Microchip\xc8\v2.00\pic\include\pic16f887.h"
  1020                           EECON1 equ 018Ch ;# 
  1021  018C                     # 3546 "C:\Program Files (x86)\Microchip\xc8\v2.00\pic\include\pic16f887.h"
  1022                           EECON2 equ 018Dh ;# 
  1023  018D                     # 54 "C:\Program Files (x86)\Microchip\xc8\v2.00\pic\include\pic16f887.h"
  1024                           INDF equ 00h ;# 
  1025  0000                     # 61 "C:\Program Files (x86)\Microchip\xc8\v2.00\pic\include\pic16f887.h"
  1026                           TMR0 equ 01h ;# 
  1027  0001                     # 68 "C:\Program Files (x86)\Microchip\xc8\v2.00\pic\include\pic16f887.h"
  1028                           PCL equ 02h ;# 
  1029  0002                     # 75 "C:\Program Files (x86)\Microchip\xc8\v2.00\pic\include\pic16f887.h"
  1030                           STATUS equ 03h ;# 
  1031  0003                     # 161 "C:\Program Files (x86)\Microchip\xc8\v2.00\pic\include\pic16f887.h"
  1032                           FSR equ 04h ;# 
  1033  0004                     # 168 "C:\Program Files (x86)\Microchip\xc8\v2.00\pic\include\pic16f887.h"
  1034                           PORTA equ 05h ;# 
  1035  0005                     # 230 "C:\Program Files (x86)\Microchip\xc8\v2.00\pic\include\pic16f887.h"
  1036                           PORTB equ 06h ;# 
  1037  0006                     # 292 "C:\Program Files (x86)\Microchip\xc8\v2.00\pic\include\pic16f887.h"
  1038                           PORTC equ 07h ;# 
  1039  0007                     # 354 "C:\Program Files (x86)\Microchip\xc8\v2.00\pic\include\pic16f887.h"
  1040                           PORTD equ 08h ;# 
  1041  0008                     # 416 "C:\Program Files (x86)\Microchip\xc8\v2.00\pic\include\pic16f887.h"
  1042                           PORTE equ 09h ;# 
  1043  0009                     # 454 "C:\Program Files (x86)\Microchip\xc8\v2.00\pic\include\pic16f887.h"
  1044                           PCLATH equ 0Ah ;# 
  1045  000A                     # 461 "C:\Program Files (x86)\Microchip\xc8\v2.00\pic\include\pic16f887.h"
  1046                           INTCON equ 0Bh ;# 
  1047  000B                     # 539 "C:\Program Files (x86)\Microchip\xc8\v2.00\pic\include\pic16f887.h"
  1048                           PIR1 equ 0Ch ;# 
  1049  000C                     # 595 "C:\Program Files (x86)\Microchip\xc8\v2.00\pic\include\pic16f887.h"
  1050                           PIR2 equ 0Dh ;# 
  1051  000D                     # 652 "C:\Program Files (x86)\Microchip\xc8\v2.00\pic\include\pic16f887.h"
  1052                           TMR1 equ 0Eh ;# 
  1053  000E                     # 659 "C:\Program Files (x86)\Microchip\xc8\v2.00\pic\include\pic16f887.h"
  1054                           TMR1L equ 0Eh ;# 
  1055  000E                     # 666 "C:\Program Files (x86)\Microchip\xc8\v2.00\pic\include\pic16f887.h"
  1056                           TMR1H equ 0Fh ;# 
  1057  000F                     # 673 "C:\Program Files (x86)\Microchip\xc8\v2.00\pic\include\pic16f887.h"
  1058                           T1CON equ 010h ;# 
  1059  0010                     # 767 "C:\Program Files (x86)\Microchip\xc8\v2.00\pic\include\pic16f887.h"
  1060                           TMR2 equ 011h ;# 
  1061  0011                     # 774 "C:\Program Files (x86)\Microchip\xc8\v2.00\pic\include\pic16f887.h"
  1062                           T2CON equ 012h ;# 
  1063  0012                     # 845 "C:\Program Files (x86)\Microchip\xc8\v2.00\pic\include\pic16f887.h"
  1064                           SSPBUF equ 013h ;# 
  1065  0013                     # 852 "C:\Program Files (x86)\Microchip\xc8\v2.00\pic\include\pic16f887.h"
  1066                           SSPCON equ 014h ;# 
  1067  0014                     # 922 "C:\Program Files (x86)\Microchip\xc8\v2.00\pic\include\pic16f887.h"
  1068                           CCPR1 equ 015h ;# 
  1069  0015                     # 929 "C:\Program Files (x86)\Microchip\xc8\v2.00\pic\include\pic16f887.h"
  1070                           CCPR1L equ 015h ;# 
  1071  0015                     # 936 "C:\Program Files (x86)\Microchip\xc8\v2.00\pic\include\pic16f887.h"
  1072                           CCPR1H equ 016h ;# 
  1073  0016                     # 943 "C:\Program Files (x86)\Microchip\xc8\v2.00\pic\include\pic16f887.h"
  1074                           CCP1CON equ 017h ;# 
  1075  0017                     # 1040 "C:\Program Files (x86)\Microchip\xc8\v2.00\pic\include\pic16f887.h"
  1076                           RCSTA equ 018h ;# 
  1077  0018                     # 1135 "C:\Program Files (x86)\Microchip\xc8\v2.00\pic\include\pic16f887.h"
  1078                           TXREG equ 019h ;# 
  1079  0019                     # 1142 "C:\Program Files (x86)\Microchip\xc8\v2.00\pic\include\pic16f887.h"
  1080                           RCREG equ 01Ah ;# 
  1081  001A                     # 1149 "C:\Program Files (x86)\Microchip\xc8\v2.00\pic\include\pic16f887.h"
  1082                           CCPR2 equ 01Bh ;# 
  1083  001B                     # 1156 "C:\Program Files (x86)\Microchip\xc8\v2.00\pic\include\pic16f887.h"
  1084                           CCPR2L equ 01Bh ;# 
  1085  001B                     # 1163 "C:\Program Files (x86)\Microchip\xc8\v2.00\pic\include\pic16f887.h"
  1086                           CCPR2H equ 01Ch ;# 
  1087  001C                     # 1170 "C:\Program Files (x86)\Microchip\xc8\v2.00\pic\include\pic16f887.h"
  1088                           CCP2CON equ 01Dh ;# 
  1089  001D                     # 1240 "C:\Program Files (x86)\Microchip\xc8\v2.00\pic\include\pic16f887.h"
  1090                           ADRESH equ 01Eh ;# 
  1091  001E                     # 1247 "C:\Program Files (x86)\Microchip\xc8\v2.00\pic\include\pic16f887.h"
  1092                           ADCON0 equ 01Fh ;# 
  1093  001F                     # 1348 "C:\Program Files (x86)\Microchip\xc8\v2.00\pic\include\pic16f887.h"
  1094                           OPTION_REG equ 081h ;# 
  1095  0081                     # 1418 "C:\Program Files (x86)\Microchip\xc8\v2.00\pic\include\pic16f887.h"
  1096                           TRISA equ 085h ;# 
  1097  0085                     # 1480 "C:\Program Files (x86)\Microchip\xc8\v2.00\pic\include\pic16f887.h"
  1098                           TRISB equ 086h ;# 
  1099  0086                     # 1542 "C:\Program Files (x86)\Microchip\xc8\v2.00\pic\include\pic16f887.h"
  1100                           TRISC equ 087h ;# 
  1101  0087                     # 1604 "C:\Program Files (x86)\Microchip\xc8\v2.00\pic\include\pic16f887.h"
  1102                           TRISD equ 088h ;# 
  1103  0088                     # 1666 "C:\Program Files (x86)\Microchip\xc8\v2.00\pic\include\pic16f887.h"
  1104                           TRISE equ 089h ;# 
  1105  0089                     # 1704 "C:\Program Files (x86)\Microchip\xc8\v2.00\pic\include\pic16f887.h"
  1106                           PIE1 equ 08Ch ;# 
  1107  008C                     # 1760 "C:\Program Files (x86)\Microchip\xc8\v2.00\pic\include\pic16f887.h"
  1108                           PIE2 equ 08Dh ;# 
  1109  008D                     # 1817 "C:\Program Files (x86)\Microchip\xc8\v2.00\pic\include\pic16f887.h"
  1110                           PCON equ 08Eh ;# 
  1111  008E                     # 1864 "C:\Program Files (x86)\Microchip\xc8\v2.00\pic\include\pic16f887.h"
  1112                           OSCCON equ 08Fh ;# 
  1113  008F                     # 1929 "C:\Program Files (x86)\Microchip\xc8\v2.00\pic\include\pic16f887.h"
  1114                           OSCTUNE equ 090h ;# 
  1115  0090                     # 1981 "C:\Program Files (x86)\Microchip\xc8\v2.00\pic\include\pic16f887.h"
  1116                           SSPCON2 equ 091h ;# 
  1117  0091                     # 2043 "C:\Program Files (x86)\Microchip\xc8\v2.00\pic\include\pic16f887.h"
  1118                           PR2 equ 092h ;# 
  1119  0092                     # 2050 "C:\Program Files (x86)\Microchip\xc8\v2.00\pic\include\pic16f887.h"
  1120                           SSPADD equ 093h ;# 
  1121  0093                     # 2057 "C:\Program Files (x86)\Microchip\xc8\v2.00\pic\include\pic16f887.h"
  1122                           SSPMSK equ 093h ;# 
  1123  0093                     # 2062 "C:\Program Files (x86)\Microchip\xc8\v2.00\pic\include\pic16f887.h"
  1124                           MSK equ 093h ;# 
  1125  0093                     # 2179 "C:\Program Files (x86)\Microchip\xc8\v2.00\pic\include\pic16f887.h"
  1126                           SSPSTAT equ 094h ;# 
  1127  0094                     # 2348 "C:\Program Files (x86)\Microchip\xc8\v2.00\pic\include\pic16f887.h"
  1128                           WPUB equ 095h ;# 
  1129  0095                     # 2418 "C:\Program Files (x86)\Microchip\xc8\v2.00\pic\include\pic16f887.h"
  1130                           IOCB equ 096h ;# 
  1131  0096                     # 2488 "C:\Program Files (x86)\Microchip\xc8\v2.00\pic\include\pic16f887.h"
  1132                           VRCON equ 097h ;# 
  1133  0097                     # 2558 "C:\Program Files (x86)\Microchip\xc8\v2.00\pic\include\pic16f887.h"
  1134                           TXSTA equ 098h ;# 
  1135  0098                     # 2644 "C:\Program Files (x86)\Microchip\xc8\v2.00\pic\include\pic16f887.h"
  1136                           SPBRG equ 099h ;# 
  1137  0099                     # 2706 "C:\Program Files (x86)\Microchip\xc8\v2.00\pic\include\pic16f887.h"
  1138                           SPBRGH equ 09Ah ;# 
  1139  009A                     # 2776 "C:\Program Files (x86)\Microchip\xc8\v2.00\pic\include\pic16f887.h"
  1140                           PWM1CON equ 09Bh ;# 
  1141  009B                     # 2846 "C:\Program Files (x86)\Microchip\xc8\v2.00\pic\include\pic16f887.h"
  1142                           ECCPAS equ 09Ch ;# 
  1143  009C                     # 2928 "C:\Program Files (x86)\Microchip\xc8\v2.00\pic\include\pic16f887.h"
  1144                           PSTRCON equ 09Dh ;# 
  1145  009D                     # 2972 "C:\Program Files (x86)\Microchip\xc8\v2.00\pic\include\pic16f887.h"
  1146                           ADRESL equ 09Eh ;# 
  1147  009E                     # 2979 "C:\Program Files (x86)\Microchip\xc8\v2.00\pic\include\pic16f887.h"
  1148                           ADCON1 equ 09Fh ;# 
  1149  009F                     # 3013 "C:\Program Files (x86)\Microchip\xc8\v2.00\pic\include\pic16f887.h"
  1150                           WDTCON equ 0105h ;# 
  1151  0105                     # 3066 "C:\Program Files (x86)\Microchip\xc8\v2.00\pic\include\pic16f887.h"
  1152                           CM1CON0 equ 0107h ;# 
  1153  0107                     # 3131 "C:\Program Files (x86)\Microchip\xc8\v2.00\pic\include\pic16f887.h"
  1154                           CM2CON0 equ 0108h ;# 
  1155  0108                     # 3196 "C:\Program Files (x86)\Microchip\xc8\v2.00\pic\include\pic16f887.h"
  1156                           CM2CON1 equ 0109h ;# 
  1157  0109                     # 3247 "C:\Program Files (x86)\Microchip\xc8\v2.00\pic\include\pic16f887.h"
  1158                           EEDATA equ 010Ch ;# 
  1159  010C                     # 3252 "C:\Program Files (x86)\Microchip\xc8\v2.00\pic\include\pic16f887.h"
  1160                           EEDAT equ 010Ch ;# 
  1161  010C                     # 3259 "C:\Program Files (x86)\Microchip\xc8\v2.00\pic\include\pic16f887.h"
  1162                           EEADR equ 010Dh ;# 
  1163  010D                     # 3266 "C:\Program Files (x86)\Microchip\xc8\v2.00\pic\include\pic16f887.h"
  1164                           EEDATH equ 010Eh ;# 
  1165  010E                     # 3273 "C:\Program Files (x86)\Microchip\xc8\v2.00\pic\include\pic16f887.h"
  1166                           EEADRH equ 010Fh ;# 
  1167  010F                     # 3280 "C:\Program Files (x86)\Microchip\xc8\v2.00\pic\include\pic16f887.h"
  1168                           SRCON equ 0185h ;# 
  1169  0185                     # 3337 "C:\Program Files (x86)\Microchip\xc8\v2.00\pic\include\pic16f887.h"
  1170                           BAUDCTL equ 0187h ;# 
  1171  0187                     # 3389 "C:\Program Files (x86)\Microchip\xc8\v2.00\pic\include\pic16f887.h"
  1172                           ANSEL equ 0188h ;# 
  1173  0188                     # 3451 "C:\Program Files (x86)\Microchip\xc8\v2.00\pic\include\pic16f887.h"
  1174                           ANSELH equ 0189h ;# 
  1175  0189                     # 3501 "C:\Program Files (x86)\Microchip\xc8\v2.00\pic\include\pic16f887.h"
  1176                           EECON1 equ 018Ch ;# 
  1177  018C                     # 3546 "C:\Program Files (x86)\Microchip\xc8\v2.00\pic\include\pic16f887.h"
  1178                           EECON2 equ 018Dh ;# 
  1179  018D                     	FNCALL	_main,_Lcd_Clear_8bits
  1180                           	FNCALL	_main,_Lcd_Init_8bits
  1181                           	FNCALL	_main,_Lcd_Set_Cursor_8bits
  1182                           	FNCALL	_main,_Lcd_Write_Char
  1183                           	FNCALL	_main,_Lcd_Write_String
  1184                           	FNCALL	_main,_PWMconf
  1185                           	FNCALL	_main,___awdiv
  1186                           	FNCALL	_main,___awmod
  1187                           	FNCALL	_main,___fldiv
  1188                           	FNCALL	_main,___fltol
  1189                           	FNCALL	_main,___xxtofl
  1190                           	FNCALL	_main,_funcAdc
  1191                           	FNCALL	_main,_init
  1192                           	FNCALL	_main,_initOsc
  1193                           	FNCALL	_Lcd_Write_String,_Lcd_Write_Char
  1194                           	FNCALL	_Lcd_Write_Char,_Lcd_Port
  1195                           	FNCALL	_Lcd_Set_Cursor_8bits,_Lcd_Cmd_8bits
  1196                           	FNCALL	_Lcd_Init_8bits,_Lcd_Cmd_8bits
  1197                           	FNCALL	_Lcd_Clear_8bits,_Lcd_Cmd_8bits
  1198                           	FNROOT	_main
  1199                           	FNCALL	intlevel1,_interrupciones
  1200                           	global	intlevel1
  1201                           	FNROOT	intlevel1
  1202                           	global	_a
  1203                           	global	_numerito
  1204                           	global	_res
  1205                           	global	_INTCONbits
  1206                           _INTCONbits	set	0xB
  1207  000B                     	global	_PORTBbits
  1208                           _PORTBbits	set	0x6
  1209  0006                     	global	_SSPBUF
  1210                           _SSPBUF	set	0x13
  1211  0013                     	global	_SSPCON
  1212                           _SSPCON	set	0x14
  1213  0014                     	global	_T2CONbits
  1214                           _T2CONbits	set	0x12
  1215  0012                     	global	_CCPR1L
  1216                           _CCPR1L	set	0x15
  1217  0015                     	global	_CCP1CONbits
  1218                           _CCP1CONbits	set	0x17
  1219  0017                     	global	_PORTE
  1220                           _PORTE	set	0x9
  1221  0009                     	global	_PORTC
  1222                           _PORTC	set	0x7
  1223  0007                     	global	_PORTB
  1224                           _PORTB	set	0x6
  1225  0006                     	global	_PORTA
  1226                           _PORTA	set	0x5
  1227  0005                     	global	_TMR1L
  1228                           _TMR1L	set	0xE
  1229  000E                     	global	_TMR1H
  1230                           _TMR1H	set	0xF
  1231  000F                     	global	_PORTD
  1232                           _PORTD	set	0x8
  1233  0008                     	global	_PORTEbits
  1234                           _PORTEbits	set	0x9
  1235  0009                     	global	_T1CON
  1236                           _T1CON	set	0x10
  1237  0010                     	global	_ADCON0bits
  1238                           _ADCON0bits	set	0x1F
  1239  001F                     	global	_ADRESH
  1240                           _ADRESH	set	0x1E
  1241  001E                     	global	_PIR1bits
  1242                           _PIR1bits	set	0xC
  1243  000C                     	global	_RD7
  1244                           _RD7	set	0x47
  1245  0047                     	global	_RD6
  1246                           _RD6	set	0x46
  1247  0046                     	global	_RD5
  1248                           _RD5	set	0x45
  1249  0045                     	global	_RD4
  1250                           _RD4	set	0x44
  1251  0044                     	global	_RD3
  1252                           _RD3	set	0x43
  1253  0043                     	global	_RD2
  1254                           _RD2	set	0x42
  1255  0042                     	global	_RD1
  1256                           _RD1	set	0x41
  1257  0041                     	global	_RD0
  1258                           _RD0	set	0x40
  1259  0040                     	global	_SSPIF
  1260                           _SSPIF	set	0x63
  1261  0063                     	global	_PEIE
  1262                           _PEIE	set	0x5E
  1263  005E                     	global	_GIE
  1264                           _GIE	set	0x5F
  1265  005F                     	global	_TMR1ON
  1266                           _TMR1ON	set	0x80
  1267  0080                     	global	_RA1
  1268                           _RA1	set	0x29
  1269  0029                     	global	_RA4
  1270                           _RA4	set	0x2C
  1271  002C                     	global	_PIE1bits
  1272                           _PIE1bits	set	0x8C
  1273  008C                     	global	_ADCON1bits
  1274                           _ADCON1bits	set	0x9F
  1275  009F                     	global	_OPTION_REG
  1276                           _OPTION_REG	set	0x81
  1277  0081                     	global	_SSPCON2bits
  1278                           _SSPCON2bits	set	0x91
  1279  0091                     	global	_SSPSTAT
  1280                           _SSPSTAT	set	0x94
  1281  0094                     	global	_SSPADD
  1282                           _SSPADD	set	0x93
  1283  0093                     	global	_SSPCON2
  1284                           _SSPCON2	set	0x91
  1285  0091                     	global	_OSCCONbits
  1286                           _OSCCONbits	set	0x8F
  1287  008F                     	global	_PR2
  1288                           _PR2	set	0x92
  1289  0092                     	global	_TRISCbits
  1290                           _TRISCbits	set	0x87
  1291  0087                     	global	_TRISE
  1292                           _TRISE	set	0x89
  1293  0089                     	global	_TRISC
  1294                           _TRISC	set	0x87
  1295  0087                     	global	_TRISD
  1296                           _TRISD	set	0x88
  1297  0088                     	global	_TRISA
  1298                           _TRISA	set	0x85
  1299  0085                     	global	_TRISB
  1300                           _TRISB	set	0x86
  1301  0086                     	global	_SSPIE
  1302                           _SSPIE	set	0x463
  1303  0463                     	global	_TRISC4
  1304                           _TRISC4	set	0x43C
  1305  043C                     	global	_TRISC3
  1306                           _TRISC3	set	0x43B
  1307  043B                     	global	_ANSELbits
  1308                           _ANSELbits	set	0x188
  1309  0188                     	global	_ANSELH
  1310                           _ANSELH	set	0x189
  1311  0189                     	global	_ANSEL
  1312                           _ANSEL	set	0x188
  1313  0188                     psect	strings,class=STRING,delta=2,noexec
  1314                           global __pstrings
  1315                           __pstrings:
  1316  0800                     stringtab:
  1317  0800                     	global    __stringtab
  1318                           __stringtab:
  1319  0800                     ;	String table - string pointers are 1 byte each
  1320                           stringcode:stringdir:
  1321  0800                     movlw high(stringdir)
      + 0800                     stringdir:	
  1322  0800  3008               movwf pclath
  1323  0801  008A               movf fsr,w
  1324  0802  0804               incf fsr
  1325  0803  0A84               	addwf pc
  1326  0804  0782               	global __stringbase
  1327                           __stringbase:
  1328  0805                     	retlw	0
  1329  0805  3400               psect	strings
  1330                           	global    __end_of__stringtab
  1331                           __end_of__stringtab:
  1332  0806                     	
  1333                           STR_2:	
  1334  0806                     	retlw	70	;'F'
  1335  0806  3446               	retlw	114	;'r'
  1336  0807  3472               	retlw	97	;'a'
  1337  0808  3461               	retlw	110	;'n'
  1338  0809  346E               	retlw	99	;'c'
  1339  080A  3463               	retlw	105	;'i'
  1340  080B  3469               	retlw	115	;'s'
  1341  080C  3473               	retlw	32	;' '
  1342  080D  3420               	retlw	83	;'S'
  1343  080E  3453               	retlw	97	;'a'
  1344  080F  3461               	retlw	110	;'n'
  1345  0810  346E               	retlw	97	;'a'
  1346  0811  3461               	retlw	98	;'b'
  1347  0812  3462               	retlw	114	;'r'
  1348  0813  3472               	retlw	105	;'i'
  1349  0814  3469               	retlw	97	;'a'
  1350  0815  3461               	retlw	0
  1351  0816  3400               psect	strings
  1352                           	
  1353                           STR_1:	
  1354  0817                     	retlw	66	;'B'
  1355  0817  3442               	retlw	105	;'i'
  1356  0818  3469               	retlw	101	;'e'
  1357  0819  3465               	retlw	110	;'n'
  1358  081A  346E               	retlw	118	;'v'
  1359  081B  3476               	retlw	101	;'e'
  1360  081C  3465               	retlw	110	;'n'
  1361  081D  346E               	retlw	105	;'i'
  1362  081E  3469               	retlw	100	;'d'
  1363  081F  3464               	retlw	111	;'o'
  1364  0820  346F               	retlw	44	;','
  1365  0821  342C               	retlw	32	;' '
  1366  0822  3420               	retlw	112	;'p'
  1367  0823  3470               	retlw	111	;'o'
  1368  0824  346F               	retlw	114	;'r'
  1369  0825  3472               	retlw	0
  1370  0826  3400               psect	strings
  1371                           	
  1372                           STR_5:	
  1373  0827                     	retlw	79	;'O'
  1374  0827  344F               	retlw	117	;'u'
  1375  0828  3475               	retlw	116	;'t'
  1376  0829  3474               	retlw	32	;' '
  1377  082A  3420               	retlw	111	;'o'
  1378  082B  346F               	retlw	102	;'f'
  1379  082C  3466               	retlw	32	;' '
  1380  082D  3420               	retlw	82	;'R'
  1381  082E  3452               	retlw	97	;'a'
  1382  082F  3461               	retlw	110	;'n'
  1383  0830  346E               	retlw	103	;'g'
  1384  0831  3467               	retlw	101	;'e'
  1385  0832  3465               	retlw	0
  1386  0833  3400               psect	strings
  1387                           	
  1388                           STR_3:	
  1389  0834                     	retlw	68	;'D'
  1390  0834  3444               	retlw	105	;'i'
  1391  0835  3469               	retlw	115	;'s'
  1392  0836  3473               	retlw	116	;'t'
  1393  0837  3474               	retlw	97	;'a'
  1394  0838  3461               	retlw	110	;'n'
  1395  0839  346E               	retlw	99	;'c'
  1396  083A  3463               	retlw	101	;'e'
  1397  083B  3465               	retlw	32	;' '
  1398  083C  3420               	retlw	61	;'='
  1399  083D  343D               	retlw	32	;' '
  1400  083E  3420               	retlw	0
  1401  083F  3400               psect	strings
  1402                           	
  1403                           STR_4:	
  1404  0840                     	retlw	99	;'c'
  1405  0840  3463               	retlw	109	;'m'
  1406  0841  346D               	retlw	0
  1407  0842  3400               psect	strings
  1408                           ; #config settings
  1409                           global __CFG_FOSC$INTRC_NOCLKOUT
  1410                           __CFG_FOSC$INTRC_NOCLKOUT equ 0x0
  1411  0000                     global __CFG_WDTE$OFF
  1412                           __CFG_WDTE$OFF equ 0x0
  1413  0000                     global __CFG_PWRTE$OFF
  1414                           __CFG_PWRTE$OFF equ 0x0
  1415  0000                     global __CFG_MCLRE$ON
  1416                           __CFG_MCLRE$ON equ 0x0
  1417  0000                     global __CFG_CP$OFF
  1418                           __CFG_CP$OFF equ 0x0
  1419  0000                     global __CFG_CPD$OFF
  1420                           __CFG_CPD$OFF equ 0x0
  1421  0000                     global __CFG_BOREN$ON
  1422                           __CFG_BOREN$ON equ 0x0
  1423  0000                     global __CFG_IESO$OFF
  1424                           __CFG_IESO$OFF equ 0x0
  1425  0000                     global __CFG_FCMEN$OFF
  1426                           __CFG_FCMEN$OFF equ 0x0
  1427  0000                     global __CFG_LVP$OFF
  1428                           __CFG_LVP$OFF equ 0x0
  1429  0000                     global __CFG_BOR4V$BOR40V
  1430                           __CFG_BOR4V$BOR40V equ 0x0
  1431  0000                     global __CFG_WRT$OFF
  1432                           __CFG_WRT$OFF equ 0x0
  1433  0000                     	file	"C:\Users\DIBUJO~1\AppData\Local\Temp\shls."
  1434                           	line	#
  1435                           psect cinit,class=CODE,delta=2
  1436                           global start_initialization
  1437                           start_initialization:
  1438  000F                     
  1439                           global __initialization
  1440                           __initialization:
  1441  000F                     psect	bssCOMMON,class=COMMON,space=1,noexec
  1442                           global __pbssCOMMON
  1443                           __pbssCOMMON:
  1444  0079                     _z:
  1445  0079                            ds      1
  1446  0079                     
  1447                           _conteo:
  1448  007A                            ds      1
  1449  007A                     
  1450                           psect	bssBANK0,class=BANK0,space=1,noexec
  1451                           global __pbssBANK0
  1452                           __pbssBANK0:
  1453  0051                     _a:
  1454  0051                            ds      2
  1455  0051                     
  1456                           _numerito:
  1457  0053                            ds      1
  1458  0053                     
  1459                           _res:
  1460  0054                            ds      1
  1461  0054                     
  1462                           	file	"C:\Users\DIBUJO~1\AppData\Local\Temp\shls."
  1463                           	line	#
  1464                           ; Clear objects allocated to COMMON
  1465                           psect cinit,class=CODE,delta=2,merge=1
  1466                           	clrf	((__pbssCOMMON)+0)&07Fh
  1467  000F  01F9               	clrf	((__pbssCOMMON)+1)&07Fh
  1468  0010  01FA               ; Clear objects allocated to BANK0
  1469                           psect cinit,class=CODE,delta=2,merge=1
  1470                           	bcf	status, 5	;RP0=0, select bank0
  1471  0011  1283               	bcf	status, 6	;RP1=0, select bank0
  1472  0012  1303               	clrf	((__pbssBANK0)+0)&07Fh
  1473  0013  01D1               	clrf	((__pbssBANK0)+1)&07Fh
  1474  0014  01D2               	clrf	((__pbssBANK0)+2)&07Fh
  1475  0015  01D3               	clrf	((__pbssBANK0)+3)&07Fh
  1476  0016  01D4               psect cinit,class=CODE,delta=2,merge=1
  1477                           global end_of_initialization,__end_of__initialization
  1478                           
  1479                           ;End of C runtime variable initialization code
  1480                           
  1481                           end_of_initialization:
  1482  0017                     __end_of__initialization:
  1483  0017                     clrf status
  1484  0017  0183               ljmp _main	;jump to C main() function
  1485  0018  120A  118A  2A24   psect	cstackCOMMON,class=COMMON,space=1,noexec
  1486                           global __pcstackCOMMON
  1487                           __pcstackCOMMON:
  1488  0070                     ?_init:	; 1 bytes @ 0x0
  1489  0070                     ?_initOsc:	; 1 bytes @ 0x0
  1490  0070                     ?_PWMconf:	; 1 bytes @ 0x0
  1491  0070                     ?_Lcd_Init_8bits:	; 1 bytes @ 0x0
  1492  0070                     ?_Lcd_Clear_8bits:	; 1 bytes @ 0x0
  1493  0070                     ?_interrupciones:	; 1 bytes @ 0x0
  1494  0070                     ??_interrupciones:	; 1 bytes @ 0x0
  1495  0070                     ?_main:	; 1 bytes @ 0x0
  1496  0070                     ?_Lcd_Port:	; 1 bytes @ 0x0
  1497  0070                     ?_Lcd_Cmd_8bits:	; 1 bytes @ 0x0
  1498  0070                     	ds	3
  1499  0070                     ??_init:	; 1 bytes @ 0x3
  1500  0073                     ??_initOsc:	; 1 bytes @ 0x3
  1501  0073                     ?_funcAdc:	; 1 bytes @ 0x3
  1502  0073                     ??_PWMconf:	; 1 bytes @ 0x3
  1503  0073                     ??_Lcd_Port:	; 1 bytes @ 0x3
  1504  0073                     ??_Lcd_Cmd_8bits:	; 1 bytes @ 0x3
  1505  0073                     	global	?___awdiv
  1506                           ?___awdiv:	; 2 bytes @ 0x3
  1507  0073                     	global	?___awmod
  1508                           ?___awmod:	; 2 bytes @ 0x3
  1509  0073                     	global	?___xxtofl
  1510                           ?___xxtofl:	; 4 bytes @ 0x3
  1511  0073                     	global	Lcd_Port@a
  1512                           Lcd_Port@a:	; 1 bytes @ 0x3
  1513  0073                     	global	funcAdc@anaP
  1514                           funcAdc@anaP:	; 1 bytes @ 0x3
  1515  0073                     	global	___awdiv@divisor
  1516                           ___awdiv@divisor:	; 2 bytes @ 0x3
  1517  0073                     	global	___awmod@divisor
  1518                           ___awmod@divisor:	; 2 bytes @ 0x3
  1519  0073                     	global	___xxtofl@val
  1520                           ___xxtofl@val:	; 4 bytes @ 0x3
  1521  0073                     	ds	1
  1522  0073                     ?_Lcd_Write_Char:	; 1 bytes @ 0x4
  1523  0074                     	global	Lcd_Cmd_8bits@comando
  1524                           Lcd_Cmd_8bits@comando:	; 1 bytes @ 0x4
  1525  0074                     	global	funcAdc@just
  1526                           funcAdc@just:	; 1 bytes @ 0x4
  1527  0074                     	global	Lcd_Write_Char@modo
  1528                           Lcd_Write_Char@modo:	; 2 bytes @ 0x4
  1529  0074                     	ds	1
  1530  0074                     ??_funcAdc:	; 1 bytes @ 0x5
  1531  0075                     ??_Lcd_Init_8bits:	; 1 bytes @ 0x5
  1532  0075                     ??_Lcd_Clear_8bits:	; 1 bytes @ 0x5
  1533  0075                     ?_Lcd_Set_Cursor_8bits:	; 1 bytes @ 0x5
  1534  0075                     	global	initOsc@frec
  1535                           initOsc@frec:	; 1 bytes @ 0x5
  1536  0075                     	global	Lcd_Set_Cursor_8bits@x
  1537                           Lcd_Set_Cursor_8bits@x:	; 1 bytes @ 0x5
  1538  0075                     	global	___awdiv@dividend
  1539                           ___awdiv@dividend:	; 2 bytes @ 0x5
  1540  0075                     	global	___awmod@dividend
  1541                           ___awmod@dividend:	; 2 bytes @ 0x5
  1542  0075                     	ds	1
  1543  0075                     ??_Lcd_Set_Cursor_8bits:	; 1 bytes @ 0x6
  1544  0076                     ??_Lcd_Write_Char:	; 1 bytes @ 0x6
  1545  0076                     	global	Lcd_Set_Cursor_8bits@y
  1546                           Lcd_Set_Cursor_8bits@y:	; 1 bytes @ 0x6
  1547  0076                     	ds	1
  1548  0076                     ??_Lcd_Write_String:	; 1 bytes @ 0x7
  1549  0077                     ??___awdiv:	; 1 bytes @ 0x7
  1550  0077                     ??___awmod:	; 1 bytes @ 0x7
  1551  0077                     	global	funcAdc@divD
  1552                           funcAdc@divD:	; 1 bytes @ 0x7
  1553  0077                     	global	___fltol@sign1
  1554                           ___fltol@sign1:	; 1 bytes @ 0x7
  1555  0077                     	ds	1
  1556  0077                     	global	___fltol@exp1
  1557                           ___fltol@exp1:	; 1 bytes @ 0x8
  1558  0078                     	ds	1
  1559  0078                     psect	cstackBANK0,class=BANK0,space=1,noexec
  1560                           global __pcstackBANK0
  1561                           __pcstackBANK0:
  1562  0020                     ??___xxtofl:	; 1 bytes @ 0x0
  1563  0020                     	global	Lcd_Write_Char@temp
  1564                           Lcd_Write_Char@temp:	; 1 bytes @ 0x0
  1565  0020                     	global	___awdiv@counter
  1566                           ___awdiv@counter:	; 1 bytes @ 0x0
  1567  0020                     	global	___awmod@counter
  1568                           ___awmod@counter:	; 1 bytes @ 0x0
  1569  0020                     	ds	1
  1570  0020                     	global	Lcd_Write_Char@y
  1571                           Lcd_Write_Char@y:	; 1 bytes @ 0x1
  1572  0021                     	global	___awdiv@sign
  1573                           ___awdiv@sign:	; 1 bytes @ 0x1
  1574  0021                     	global	___awmod@sign
  1575                           ___awmod@sign:	; 1 bytes @ 0x1
  1576  0021                     	ds	1
  1577  0021                     	global	Lcd_Write_Char@a
  1578                           Lcd_Write_Char@a:	; 1 bytes @ 0x2
  1579  0022                     	global	___awdiv@quotient
  1580                           ___awdiv@quotient:	; 2 bytes @ 0x2
  1581  0022                     	ds	1
  1582  0022                     ?_Lcd_Write_String:	; 1 bytes @ 0x3
  1583  0023                     	global	Lcd_Write_String@modo
  1584                           Lcd_Write_String@modo:	; 2 bytes @ 0x3
  1585  0023                     	ds	1
  1586  0023                     	global	___xxtofl@sign
  1587                           ___xxtofl@sign:	; 1 bytes @ 0x4
  1588  0024                     	ds	1
  1589  0024                     	global	___xxtofl@exp
  1590                           ___xxtofl@exp:	; 1 bytes @ 0x5
  1591  0025                     	global	Lcd_Write_String@i
  1592                           Lcd_Write_String@i:	; 2 bytes @ 0x5
  1593  0025                     	ds	1
  1594  0025                     	global	___xxtofl@arg
  1595                           ___xxtofl@arg:	; 4 bytes @ 0x6
  1596  0026                     	ds	1
  1597  0026                     	global	Lcd_Write_String@a
  1598                           Lcd_Write_String@a:	; 1 bytes @ 0x7
  1599  0027                     	ds	3
  1600  0027                     	global	?___fldiv
  1601                           ?___fldiv:	; 4 bytes @ 0xA
  1602  002A                     	global	___fldiv@a
  1603                           ___fldiv@a:	; 4 bytes @ 0xA
  1604  002A                     	ds	4
  1605  002A                     	global	___fldiv@b
  1606                           ___fldiv@b:	; 4 bytes @ 0xE
  1607  002E                     	ds	4
  1608  002E                     ??___fldiv:	; 1 bytes @ 0x12
  1609  0032                     	ds	5
  1610  0032                     	global	___fldiv@rem
  1611                           ___fldiv@rem:	; 4 bytes @ 0x17
  1612  0037                     	ds	4
  1613  0037                     	global	___fldiv@sign
  1614                           ___fldiv@sign:	; 1 bytes @ 0x1B
  1615  003B                     	ds	1
  1616  003B                     	global	___fldiv@new_exp
  1617                           ___fldiv@new_exp:	; 2 bytes @ 0x1C
  1618  003C                     	ds	2
  1619  003C                     	global	___fldiv@grs
  1620                           ___fldiv@grs:	; 4 bytes @ 0x1E
  1621  003E                     	ds	4
  1622  003E                     	global	___fldiv@bexp
  1623                           ___fldiv@bexp:	; 1 bytes @ 0x22
  1624  0042                     	ds	1
  1625  0042                     	global	___fldiv@aexp
  1626                           ___fldiv@aexp:	; 1 bytes @ 0x23
  1627  0043                     	ds	1
  1628  0043                     	global	?___fltol
  1629                           ?___fltol:	; 4 bytes @ 0x24
  1630  0044                     	global	___fltol@f1
  1631                           ___fltol@f1:	; 4 bytes @ 0x24
  1632  0044                     	ds	4
  1633  0044                     ??___fltol:	; 1 bytes @ 0x28
  1634  0048                     	ds	5
  1635  0048                     ??_main:	; 1 bytes @ 0x2D
  1636  004D                     	ds	3
  1637  004D                     	global	main@Key
  1638                           main@Key:	; 1 bytes @ 0x30
  1639  0050                     	ds	1
  1640  0050                     ;!
  1641                           ;!Data Sizes:
  1642                           ;!    Strings     61
  1643                           ;!    Constant    0
  1644                           ;!    Data        0
  1645                           ;!    BSS         6
  1646                           ;!    Persistent  0
  1647                           ;!    Stack       0
  1648                           ;!
  1649                           ;!Auto Spaces:
  1650                           ;!    Space          Size  Autos    Used
  1651                           ;!    COMMON           14      9      11
  1652                           ;!    BANK0            80     49      53
  1653                           ;!    BANK1            80      0       0
  1654                           ;!    BANK3            96      0       0
  1655                           ;!    BANK2            96      0       0
  1656                           
  1657                           ;!
  1658                           ;!Pointer List with Targets:
  1659                           ;!
  1660                           ;!    Lcd_Write_String@a	PTR unsigned char  size(1) Largest target is 17
  1661                           ;!		 -> STR_5(CODE[13]), STR_4(CODE[3]), STR_3(CODE[12]), STR_2(CODE[17]), 
  1662                           ;!		 -> STR_1(CODE[16]), 
  1663                           ;!
  1664                           
  1665                           
  1666                           ;!
  1667                           ;!Critical Paths under _main in COMMON
  1668                           ;!
  1669                           ;!    _main->___fltol
  1670                           ;!    ___fltol->___xxtofl
  1671                           ;!    ___fldiv->___xxtofl
  1672                           ;!    _Lcd_Write_String->_Lcd_Write_Char
  1673                           ;!    _Lcd_Write_Char->_Lcd_Port
  1674                           ;!    _Lcd_Set_Cursor_8bits->_Lcd_Cmd_8bits
  1675                           ;!    _Lcd_Init_8bits->_Lcd_Cmd_8bits
  1676                           ;!    _Lcd_Clear_8bits->_Lcd_Cmd_8bits
  1677                           ;!
  1678                           ;!Critical Paths under _interrupciones in COMMON
  1679                           ;!
  1680                           ;!    None.
  1681                           ;!
  1682                           ;!Critical Paths under _main in BANK0
  1683                           ;!
  1684                           ;!    _main->___fltol
  1685                           ;!    ___fltol->___fldiv
  1686                           ;!    ___fldiv->___xxtofl
  1687                           ;!    _Lcd_Write_String->_Lcd_Write_Char
  1688                           ;!
  1689                           ;!Critical Paths under _interrupciones in BANK0
  1690                           ;!
  1691                           ;!    None.
  1692                           ;!
  1693                           ;!Critical Paths under _main in BANK1
  1694                           ;!
  1695                           ;!    None.
  1696                           ;!
  1697                           ;!Critical Paths under _interrupciones in BANK1
  1698                           ;!
  1699                           ;!    None.
  1700                           ;!
  1701                           ;!Critical Paths under _main in BANK3
  1702                           ;!
  1703                           ;!    None.
  1704                           ;!
  1705                           ;!Critical Paths under _interrupciones in BANK3
  1706                           ;!
  1707                           ;!    None.
  1708                           ;!
  1709                           ;!Critical Paths under _main in BANK2
  1710                           ;!
  1711                           ;!    None.
  1712                           ;!
  1713                           ;!Critical Paths under _interrupciones in BANK2
  1714                           ;!
  1715                           ;!    None.
  1716                           
  1717 ;;
  1718 ;;Main: autosize = 0, tempsize = 3, incstack = 0, save=0
  1719 ;;
  1720                           
  1721                           ;!
  1722                           ;!Call Graph Tables:
  1723                           ;!
  1724                           ;! ---------------------------------------------------------------------------------
  1725                           ;! (Depth) Function   	        Calls       Base Space   Used Autos Params    Refs
  1726                           ;! ---------------------------------------------------------------------------------
  1727                           ;! (0) _main                                                 4     4      0    7053
  1728                           ;!                                             45 BANK0      4     4      0
  1729                           ;!                    _Lcd_Clear_8bits
  1730                           ;!                     _Lcd_Init_8bits
  1731                           ;!               _Lcd_Set_Cursor_8bits
  1732                           ;!                     _Lcd_Write_Char
  1733                           ;!                   _Lcd_Write_String
  1734                           ;!                            _PWMconf
  1735                           ;!                            ___awdiv
  1736                           ;!                            ___awmod
  1737                           ;!                            ___fldiv
  1738                           ;!                            ___fltol
  1739                           ;!                           ___xxtofl
  1740                           ;!                            _funcAdc
  1741                           ;!                               _init
  1742                           ;!                            _initOsc
  1743                           ;! ---------------------------------------------------------------------------------
  1744                           ;! (1) _initOsc                                              3     3      0      22
  1745                           ;!                                              3 COMMON     3     3      0
  1746                           ;! ---------------------------------------------------------------------------------
  1747                           ;! (1) _init                                                 0     0      0       0
  1748                           ;! ---------------------------------------------------------------------------------
  1749                           ;! (1) _funcAdc                                              5     3      2     218
  1750                           ;!                                              3 COMMON     5     3      2
  1751                           ;! ---------------------------------------------------------------------------------
  1752                           ;! (1) ___xxtofl                                            14    10      4     566
  1753                           ;!                                              3 COMMON     4     0      4
  1754                           ;!                                              0 BANK0     10    10      0
  1755                           ;! ---------------------------------------------------------------------------------
  1756                           ;! (1) ___fltol                                             11     7      4     427
  1757                           ;!                                              7 COMMON     2     2      0
  1758                           ;!                                             36 BANK0      9     5      4
  1759                           ;!                            ___fldiv (ARG)
  1760                           ;!                           ___xxtofl (ARG)
  1761                           ;! ---------------------------------------------------------------------------------
  1762                           ;! (1) ___fldiv                                             26    18      8    1273
  1763                           ;!                                             10 BANK0     26    18      8
  1764                           ;!                           ___xxtofl (ARG)
  1765                           ;! ---------------------------------------------------------------------------------
  1766                           ;! (1) ___awmod                                              7     3      4     973
  1767                           ;!                                              3 COMMON     5     1      4
  1768                           ;!                                              0 BANK0      2     2      0
  1769                           ;! ---------------------------------------------------------------------------------
  1770                           ;! (1) ___awdiv                                              9     5      4     604
  1771                           ;!                                              3 COMMON     5     1      4
  1772                           ;!                                              0 BANK0      4     4      0
  1773                           ;! ---------------------------------------------------------------------------------
  1774                           ;! (1) _PWMconf                                              0     0      0       0
  1775                           ;! ---------------------------------------------------------------------------------
  1776                           ;! (1) _Lcd_Write_String                                     5     3      2    1498
  1777                           ;!                                              3 BANK0      5     3      2
  1778                           ;!                     _Lcd_Write_Char
  1779                           ;! ---------------------------------------------------------------------------------
  1780                           ;! (2) _Lcd_Write_Char                                       6     4      2     707
  1781                           ;!                                              4 COMMON     3     1      2
  1782                           ;!                                              0 BANK0      3     3      0
  1783                           ;!                           _Lcd_Port
  1784                           ;! ---------------------------------------------------------------------------------
  1785                           ;! (3) _Lcd_Port                                             1     1      0     124
  1786                           ;!                                              3 COMMON     1     1      0
  1787                           ;! ---------------------------------------------------------------------------------
  1788                           ;! (1) _Lcd_Set_Cursor_8bits                                 2     1      1     718
  1789                           ;!                                              5 COMMON     2     1      1
  1790                           ;!                      _Lcd_Cmd_8bits
  1791                           ;! ---------------------------------------------------------------------------------
  1792                           ;! (1) _Lcd_Init_8bits                                       2     2      0      22
  1793                           ;!                                              5 COMMON     2     2      0
  1794                           ;!                      _Lcd_Cmd_8bits
  1795                           ;! ---------------------------------------------------------------------------------
  1796                           ;! (1) _Lcd_Clear_8bits                                      0     0      0      22
  1797                           ;!                      _Lcd_Cmd_8bits
  1798                           ;! ---------------------------------------------------------------------------------
  1799                           ;! (2) _Lcd_Cmd_8bits                                        2     2      0      22
  1800                           ;!                                              3 COMMON     2     2      0
  1801                           ;! ---------------------------------------------------------------------------------
  1802                           ;! Estimated maximum stack depth 3
  1803                           ;! ---------------------------------------------------------------------------------
  1804                           ;! (Depth) Function   	        Calls       Base Space   Used Autos Params    Refs
  1805                           ;! ---------------------------------------------------------------------------------
  1806                           ;! (4) _interrupciones                                       3     3      0       0
  1807                           ;!                                              0 COMMON     3     3      0
  1808                           ;! ---------------------------------------------------------------------------------
  1809                           ;! Estimated maximum stack depth 4
  1810                           ;! ---------------------------------------------------------------------------------
  1811                           ;!
  1812                           ;! Call Graph Graphs:
  1813                           ;!
  1814                           ;! _main (ROOT)
  1815                           ;!   _Lcd_Clear_8bits
  1816                           ;!     _Lcd_Cmd_8bits
  1817                           ;!   _Lcd_Init_8bits
  1818                           ;!     _Lcd_Cmd_8bits
  1819                           ;!   _Lcd_Set_Cursor_8bits
  1820                           ;!     _Lcd_Cmd_8bits
  1821                           ;!   _Lcd_Write_Char
  1822                           ;!     _Lcd_Port
  1823                           ;!   _Lcd_Write_String
  1824                           ;!     _Lcd_Write_Char
  1825                           ;!       _Lcd_Port
  1826                           ;!   _PWMconf
  1827                           ;!   ___awdiv
  1828                           ;!   ___awmod
  1829                           ;!   ___fldiv
  1830                           ;!     ___xxtofl (ARG)
  1831                           ;!   ___fltol
  1832                           ;!     ___fldiv (ARG)
  1833                           ;!       ___xxtofl (ARG)
  1834                           ;!     ___xxtofl (ARG)
  1835                           ;!   ___xxtofl
  1836                           ;!   _funcAdc
  1837                           ;!   _init
  1838                           ;!   _initOsc
  1839                           ;!
  1840                           ;! _interrupciones (ROOT)
  1841                           ;!
  1842                           
  1843                           ;! Address spaces:
  1844                           
  1845                           ;!Name               Size   Autos  Total    Cost      Usage
  1846                           ;!BITCOMMON            E      0       0       0        0.0%
  1847                           ;!EEDATA             100      0       0       0        0.0%
  1848                           ;!NULL                 0      0       0       0        0.0%
  1849                           ;!CODE                 0      0       0       0        0.0%
  1850                           ;!COMMON               E      9       B       1       78.6%
  1851                           ;!BITSFR0              0      0       0       1        0.0%
  1852                           ;!SFR0                 0      0       0       1        0.0%
  1853                           ;!BITSFR1              0      0       0       2        0.0%
  1854                           ;!SFR1                 0      0       0       2        0.0%
  1855                           ;!STACK                0      0       0       2        0.0%
  1856                           ;!ABS                  0      0      40       3        0.0%
  1857                           ;!BITBANK0            50      0       0       4        0.0%
  1858                           ;!BITSFR3              0      0       0       4        0.0%
  1859                           ;!SFR3                 0      0       0       4        0.0%
  1860                           ;!BANK0               50     31      35       5       66.3%
  1861                           ;!BITSFR2              0      0       0       5        0.0%
  1862                           ;!SFR2                 0      0       0       5        0.0%
  1863                           ;!BITBANK1            50      0       0       6        0.0%
  1864                           ;!BANK1               50      0       0       7        0.0%
  1865                           ;!BITBANK3            60      0       0       8        0.0%
  1866                           ;!BANK3               60      0       0       9        0.0%
  1867                           ;!BITBANK2            60      0       0      10        0.0%
  1868                           ;!BANK2               60      0       0      11        0.0%
  1869                           ;!DATA                 0      0      40      12        0.0%
  1870                           
  1871                           	global	_main
  1872                           
  1873 ;; *************** function _main *****************
  1874 ;; Defined at:
  1875 ;;		line 61 in file "mainS1proyect.c"
  1876 ;; Parameters:    Size  Location     Type
  1877 ;;		None
  1878 ;; Auto vars:     Size  Location     Type
  1879 ;;  Key             1   48[BANK0 ] unsigned char 
  1880 ;; Return value:  Size  Location     Type
  1881 ;;                  1    wreg      void 
  1882 ;; Registers used:
  1883 ;;		wreg, fsr0l, fsr0h, status,2, status,0, btemp+1, pclath, cstack
  1884 ;; Tracked objects:
  1885 ;;		On entry : B00/0
  1886 ;;		On exit  : 0/0
  1887 ;;		Unchanged: 0/0
  1888 ;; Data sizes:     COMMON   BANK0   BANK1   BANK3   BANK2
  1889 ;;      Params:         0       0       0       0       0
  1890 ;;      Locals:         0       1       0       0       0
  1891 ;;      Temps:          0       3       0       0       0
  1892 ;;      Totals:         0       4       0       0       0
  1893 ;;Total ram usage:        4 bytes
  1894 ;; Hardware stack levels required when called:    4
  1895 ;; This function calls:
  1896 ;;		_Lcd_Clear_8bits
  1897 ;;		_Lcd_Init_8bits
  1898 ;;		_Lcd_Set_Cursor_8bits
  1899 ;;		_Lcd_Write_Char
  1900 ;;		_Lcd_Write_String
  1901 ;;		_PWMconf
  1902 ;;		___awdiv
  1903 ;;		___awmod
  1904 ;;		___fldiv
  1905 ;;		___fltol
  1906 ;;		___xxtofl
  1907 ;;		_funcAdc
  1908 ;;		_init
  1909 ;;		_initOsc
  1910 ;; This function is called by:
  1911 ;;		Startup code after reset
  1912 ;; This function uses a non-reentrant model
  1913 ;;
  1914                           psect	maintext,global,class=CODE,delta=2,split=1,group=0
  1915                           	file	"mainS1proyect.c"
  1916                           	line	61
  1917                           global __pmaintext
  1918                           __pmaintext:	;psect for function _main
  1919  0224                     psect	maintext
  1920                           	file	"mainS1proyect.c"
  1921                           	line	61
  1922                           	global	__size_of_main
  1923                           	__size_of_main	equ	__end_of_main-_main
  1924  01F7                     	
  1925                           _main:	
  1926  0224                     ;incstack = 0
  1927                           	opt	stack 4
  1928                           ; Regs used in _main: [wreg-fsr0h+status,2+status,0+btemp+1+pclath+cstack]
  1929                           	line	62
  1930                           	
  1931                           l2730:	
  1932  0224                     ;mainS1proyect.c: 62:     init();
  1933                           	fcall	_init
  1934  0224  120A  158A  278F  120A  118A  	line	63
  1935                           	
  1936                           l2732:	
  1937  0229                     ;mainS1proyect.c: 63:     initOsc(3);
  1938                           	movlw	low(03h)
  1939  0229  3003               	fcall	_initOsc
  1940  022A  120A  118A  26D2  120A  118A  	line	64
  1941                           	
  1942                           l2734:	
  1943  022F                     ;mainS1proyect.c: 64:     funcAdc(2,0,0);
  1944                           	clrf	(funcAdc@anaP)
  1945  022F  01F3               	clrf	(funcAdc@just)
  1946  0230  01F4               	movlw	low(02h)
  1947  0231  3002               	fcall	_funcAdc
  1948  0232  120A  118A  257B  120A  118A  	line	65
  1949                           ;mainS1proyect.c: 65:     PWMconf();
  1950                           	fcall	_PWMconf
  1951  0237  120A  158A  27A5  120A  118A  	line	66
  1952                           ;mainS1proyect.c: 66:     Lcd_Init_8bits();
  1953                           	fcall	_Lcd_Init_8bits
  1954  023C  120A  118A  2781  120A  118A  	line	67
  1955                           	
  1956                           l2736:	
  1957  0241                     ;mainS1proyect.c: 67:     T1CON = 0x10;
  1958                           	movlw	low(010h)
  1959  0241  3010               	bcf	status, 5	;RP0=0, select bank0
  1960  0242  1283               	bcf	status, 6	;RP1=0, select bank0
  1961  0243  1303               	movwf	(16)	;volatile
  1962  0244  0090               	line	74
  1963                           	
  1964                           l2738:	
  1965  0245                     ;mainS1proyect.c: 74:     Lcd_Clear_8bits();
  1966                           	fcall	_Lcd_Clear_8bits
  1967  0245  120A  158A  275E  120A  118A  	line	75
  1968                           	
  1969                           l2740:	
  1970  024A                     ;mainS1proyect.c: 75:     Lcd_Set_Cursor_8bits(1,2);
  1971                           	movlw	low(02h)
  1972  024A  3002               	bcf	status, 5	;RP0=0, select bank0
  1973  024B  1283               	bcf	status, 6	;RP1=0, select bank0
  1974  024C  1303               	movwf	(??_main+0)+0
  1975  024D  00CD               	movf	(??_main+0)+0,w
  1976  024E  084D               	movwf	(Lcd_Set_Cursor_8bits@x)
  1977  024F  00F5               	movlw	low(01h)
  1978  0250  3001               	fcall	_Lcd_Set_Cursor_8bits
  1979  0251  120A  158A  27BF  120A  118A  	line	76
  1980                           	
  1981                           l2742:	
  1982  0256                     ;mainS1proyect.c: 76:     Lcd_Write_String("Bienvenido, por",8);
  1983                           	movlw	08h
  1984  0256  3008               	bcf	status, 5	;RP0=0, select bank0
  1985  0257  1283               	bcf	status, 6	;RP1=0, select bank0
  1986  0258  1303               	movwf	(Lcd_Write_String@modo)
  1987  0259  00A3               	movlw	0
  1988  025A  3000               	movwf	((Lcd_Write_String@modo))+1
  1989  025B  00A4               	movlw	(low((((STR_1)-__stringbase)|8000h)))&0ffh
  1990  025C  3012               	fcall	_Lcd_Write_String
  1991  025D  120A  118A  27CC  120A  118A  	line	77
  1992                           	
  1993                           l2744:	
  1994  0262                     ;mainS1proyect.c: 77:     Lcd_Set_Cursor_8bits(2,1);
  1995                           	clrf	(Lcd_Set_Cursor_8bits@x)
  1996  0262  01F5               	incf	(Lcd_Set_Cursor_8bits@x),f
  1997  0263  0AF5               	movlw	low(02h)
  1998  0264  3002               	fcall	_Lcd_Set_Cursor_8bits
  1999  0265  120A  158A  27BF  120A  118A  	line	78
  2000                           	
  2001                           l2746:	
  2002  026A                     ;mainS1proyect.c: 78:     Lcd_Write_String("Francis Sanabria",8);
  2003                           	movlw	08h
  2004  026A  3008               	bcf	status, 5	;RP0=0, select bank0
  2005  026B  1283               	bcf	status, 6	;RP1=0, select bank0
  2006  026C  1303               	movwf	(Lcd_Write_String@modo)
  2007  026D  00A3               	movlw	0
  2008  026E  3000               	movwf	((Lcd_Write_String@modo))+1
  2009  026F  00A4               	movlw	(low((((STR_2)-__stringbase)|8000h)))&0ffh
  2010  0270  3001               	fcall	_Lcd_Write_String
  2011  0271  120A  118A  27CC  120A  118A  	line	79
  2012                           ;mainS1proyect.c: 79:     _delay((unsigned long)((3000)*(500000/4000.0)));
  2013                           	opt asmopt_push
  2014                           opt asmopt_off
  2015                           movlw  2
  2016  0276  3002               	bcf	status, 5	;RP0=0, select bank0
  2017  0277  1283               	bcf	status, 6	;RP1=0, select bank0
  2018  0278  1303               movwf	((??_main+0)+0+2),f
  2019  0279  00CF               movlw	231
  2020  027A  30E7               movwf	((??_main+0)+0+1),f
  2021  027B  00CE               	movlw	255
  2022  027C  30FF               movwf	((??_main+0)+0),f
  2023  027D  00CD               	u2727:
  2024  027E                     decfsz	((??_main+0)+0),f
  2025  027E  0BCD               	goto	u2727
  2026  027F  2A7E               	decfsz	((??_main+0)+0+1),f
  2027  0280  0BCE               	goto	u2727
  2028  0281  2A7E               	decfsz	((??_main+0)+0+2),f
  2029  0282  0BCF               	goto	u2727
  2030  0283  2A7E               	nop2
  2031  0284  2A85               opt asmopt_pop
  2032                           
  2033                           	line	80
  2034                           	
  2035                           l2748:	
  2036  0285                     ;mainS1proyect.c: 80:     Lcd_Clear_8bits();
  2037                           	fcall	_Lcd_Clear_8bits
  2038  0285  120A  158A  275E  120A  118A  	line	82
  2039                           	
  2040                           l2750:	
  2041  028A                     ;mainS1proyect.c: 82:     char Key = 'n';
  2042                           	movlw	low(06Eh)
  2043  028A  306E               	bcf	status, 5	;RP0=0, select bank0
  2044  028B  1283               	bcf	status, 6	;RP1=0, select bank0
  2045  028C  1303               	movwf	(??_main+0)+0
  2046  028D  00CD               	movf	(??_main+0)+0,w
  2047  028E  084D               	movwf	(main@Key)
  2048  028F  00D0               	goto	l2752
  2049  0290  2A91               	line	85
  2050                           ;mainS1proyect.c: 85:     while(1){
  2051                           	
  2052                           l97:	
  2053  0291                     	line	94
  2054                           	
  2055                           l2752:	
  2056  0291                     ;mainS1proyect.c: 94:         if (res < 155){
  2057                           	movlw	low(09Bh)
  2058  0291  309B               	bcf	status, 5	;RP0=0, select bank0
  2059  0292  1283               	bcf	status, 6	;RP1=0, select bank0
  2060  0293  1303               	subwf	(_res),w
  2061  0294  0254               	skipnc
  2062  0295  1803               	goto	u2631
  2063  0296  2A98               	goto	u2630
  2064  0297  2A99               u2631:
  2065  0298                     	goto	l98
  2066  0298  2A9B               u2630:
  2067  0299                     	line	95
  2068                           	
  2069                           l2754:	
  2070  0299                     ;mainS1proyect.c: 95:             PORTEbits.RE2 = 1;
  2071                           	bsf	(9),2	;volatile
  2072  0299  1509               	line	96
  2073                           ;mainS1proyect.c: 96:         }else{
  2074                           	goto	l2756
  2075  029A  2A9D               	
  2076                           l98:	
  2077  029B                     	line	97
  2078                           ;mainS1proyect.c: 97:             PORTEbits.RE2 = 0;
  2079                           	bcf	(9),2	;volatile
  2080  029B  1109               	goto	l2756
  2081  029C  2A9D               	line	98
  2082                           ;mainS1proyect.c: 98:         }
  2083                           	
  2084                           l99:	
  2085  029D                     	line	99
  2086                           	
  2087                           l2756:	
  2088  029D                     ;mainS1proyect.c: 99:         PORTD = res;
  2089                           	movf	(_res),w
  2090  029D  0854               	movwf	(8)	;volatile
  2091  029E  0088               	line	102
  2092                           	
  2093                           l2758:	
  2094  029F                     ;mainS1proyect.c: 102:         TMR1H = 0;
  2095                           	clrf	(15)	;volatile
  2096  029F  018F               	line	103
  2097                           	
  2098                           l2760:	
  2099  02A0                     ;mainS1proyect.c: 103:         TMR1L = 0;
  2100                           	clrf	(14)	;volatile
  2101  02A0  018E               	line	105
  2102                           	
  2103                           l2762:	
  2104  02A1                     ;mainS1proyect.c: 105:         RA4 = 1;
  2105                           	bsf	(44/8),(44)&7	;volatile
  2106  02A1  1605               	line	106
  2107                           	
  2108                           l2764:	
  2109  02A2                     ;mainS1proyect.c: 106:         _delay((unsigned long)((10)*(500000/4000000.0)));
  2110                           		opt asmopt_push
  2111                           	opt asmopt_off
  2112                           	nop
  2113  02A2  0000               	opt asmopt_pop
  2114                           
  2115                           	line	107
  2116                           	
  2117                           l2766:	
  2118  02A3                     ;mainS1proyect.c: 107:         RA4 = 0;
  2119                           	bcf	status, 5	;RP0=0, select bank0
  2120  02A3  1283               	bcf	status, 6	;RP1=0, select bank0
  2121  02A4  1303               	bcf	(44/8),(44)&7	;volatile
  2122  02A5  1205               	line	109
  2123                           ;mainS1proyect.c: 109:         while(!RA1);
  2124                           	goto	l100
  2125  02A6  2AA7               	
  2126                           l101:	
  2127  02A7                     	
  2128                           l100:	
  2129  02A7                     	btfss	(41/8),(41)&7	;volatile
  2130  02A7  1C85               	goto	u2641
  2131  02A8  2AAA               	goto	u2640
  2132  02A9  2AAB               u2641:
  2133  02AA                     	goto	l100
  2134  02AA  2AA7               u2640:
  2135  02AB                     	
  2136                           l102:	
  2137  02AB                     	line	110
  2138                           ;mainS1proyect.c: 110:         TMR1ON = 1;
  2139                           	bsf	(128/8),(128)&7	;volatile
  2140  02AB  1410               	line	111
  2141                           ;mainS1proyect.c: 111:         while(RA1);
  2142                           	goto	l103
  2143  02AC  2AAD               	
  2144                           l104:	
  2145  02AD                     	
  2146                           l103:	
  2147  02AD                     	btfsc	(41/8),(41)&7	;volatile
  2148  02AD  1885               	goto	u2651
  2149  02AE  2AB0               	goto	u2650
  2150  02AF  2AB1               u2651:
  2151  02B0                     	goto	l103
  2152  02B0  2AAD               u2650:
  2153  02B1                     	
  2154                           l105:	
  2155  02B1                     	line	112
  2156                           ;mainS1proyect.c: 112:         TMR1ON = 0;
  2157                           	bcf	(128/8),(128)&7	;volatile
  2158  02B1  1010               	line	114
  2159                           	
  2160                           l2768:	
  2161  02B2                     ;mainS1proyect.c: 114:         a = (TMR1L | (TMR1H<<8));
  2162                           	movf	(15),w	;volatile
  2163  02B2  080F               	movwf	(_a+1)
  2164  02B3  00D2               	movf	(14),w	;volatile
  2165  02B4  080E               	movwf	(_a)
  2166  02B5  00D1               	line	115
  2167                           	
  2168                           l2770:	
  2169  02B6                     ;mainS1proyect.c: 115:         a = a/58.82;
  2170                           	movf	(_a),w
  2171  02B6  0851               	movwf	(___xxtofl@val)
  2172  02B7  00F3               	movf	(_a+1),w
  2173  02B8  0852               	movwf	(___xxtofl@val+1)
  2174  02B9  00F4               	movlw	0
  2175  02BA  3000               	btfsc	(___xxtofl@val+1),7
  2176  02BB  1BF4               	movlw	255
  2177  02BC  30FF               	movwf	(___xxtofl@val+2)
  2178  02BD  00F5               	movwf	(___xxtofl@val+3)
  2179  02BE  00F6               	movlw	low(01h)
  2180  02BF  3001               	fcall	___xxtofl
  2181  02C0  120A  118A  241B  120A  118A  	movf	(3+(?___xxtofl)),w
  2182  02C5  0876               	bcf	status, 5	;RP0=0, select bank0
  2183  02C6  1283               	bcf	status, 6	;RP1=0, select bank0
  2184  02C7  1303               	movwf	(___fldiv@b+3)
  2185  02C8  00B1               	movf	(2+(?___xxtofl)),w
  2186  02C9  0875               	movwf	(___fldiv@b+2)
  2187  02CA  00B0               	movf	(1+(?___xxtofl)),w
  2188  02CB  0874               	movwf	(___fldiv@b+1)
  2189  02CC  00AF               	movf	(0+(?___xxtofl)),w
  2190  02CD  0873               	movwf	(___fldiv@b)
  2191  02CE  00AE               
  2192                           	movlw	0x42
  2193  02CF  3042               	movwf	(___fldiv@a+3)
  2194  02D0  00AD               	movlw	0x6b
  2195  02D1  306B               	movwf	(___fldiv@a+2)
  2196  02D2  00AC               	movlw	0x47
  2197  02D3  3047               	movwf	(___fldiv@a+1)
  2198  02D4  00AB               	movlw	0xae
  2199  02D5  30AE               	movwf	(___fldiv@a)
  2200  02D6  00AA               
  2201                           	fcall	___fldiv
  2202  02D7  120A  118A  201B  120A  118A  	bcf	status, 5	;RP0=0, select bank0
  2203  02DC  1283               	bcf	status, 6	;RP1=0, select bank0
  2204  02DD  1303               	movf	(3+(?___fldiv)),w
  2205  02DE  082D               	movwf	(___fltol@f1+3)
  2206  02DF  00C7               	movf	(2+(?___fldiv)),w
  2207  02E0  082C               	movwf	(___fltol@f1+2)
  2208  02E1  00C6               	movf	(1+(?___fldiv)),w
  2209  02E2  082B               	movwf	(___fltol@f1+1)
  2210  02E3  00C5               	movf	(0+(?___fldiv)),w
  2211  02E4  082A               	movwf	(___fltol@f1)
  2212  02E5  00C4               
  2213                           	fcall	___fltol
  2214  02E6  120A  118A  24DF  120A  118A  	bcf	status, 5	;RP0=0, select bank0
  2215  02EB  1283               	bcf	status, 6	;RP1=0, select bank0
  2216  02EC  1303               	movf	(1+(?___fltol)),w
  2217  02ED  0845               	movwf	(_a+1)
  2218  02EE  00D2               	movf	(0+(?___fltol)),w
  2219  02EF  0844               	movwf	(_a)
  2220  02F0  00D1               	line	116
  2221                           	
  2222                           l2772:	
  2223  02F1                     ;mainS1proyect.c: 116:         a = a + 1;
  2224                           	movf	(_a),w
  2225  02F1  0851               	addlw	low(01h)
  2226  02F2  3E01               	movwf	(_a)
  2227  02F3  00D1               	movf	(_a+1),w
  2228  02F4  0852               	skipnc
  2229  02F5  1803               	addlw	1
  2230  02F6  3E01               	addlw	high(01h)
  2231  02F7  3E00               	movwf	1+(_a)
  2232  02F8  00D2               	line	117
  2233                           	
  2234                           l2774:	
  2235  02F9                     ;mainS1proyect.c: 117:         if(a>=2 && a<=400)
  2236                           	movf	(_a+1),w
  2237  02F9  0852               	xorlw	80h
  2238  02FA  3A80               	movwf	btemp+1
  2239  02FB  00FF               	movlw	(0)^80h
  2240  02FC  3080               	subwf	btemp+1,w
  2241  02FD  027F               	skipz
  2242  02FE  1D03               	goto	u2665
  2243  02FF  2B02               	movlw	02h
  2244  0300  3002               	subwf	(_a),w
  2245  0301  0251               u2665:
  2246  0302                     
  2247                           	skipc
  2248  0302  1C03               	goto	u2661
  2249  0303  2B05               	goto	u2660
  2250  0304  2B06               u2661:
  2251  0305                     	goto	l2808
  2252  0305  2BF1               u2660:
  2253  0306                     	
  2254                           l2776:	
  2255  0306                     	bcf	status, 5	;RP0=0, select bank0
  2256  0306  1283               	bcf	status, 6	;RP1=0, select bank0
  2257  0307  1303               	movf	(_a+1),w
  2258  0308  0852               	xorlw	80h
  2259  0309  3A80               	movwf	btemp+1
  2260  030A  00FF               	movlw	(01h)^80h
  2261  030B  3081               	subwf	btemp+1,w
  2262  030C  027F               	skipz
  2263  030D  1D03               	goto	u2675
  2264  030E  2B11               	movlw	091h
  2265  030F  3091               	subwf	(_a),w
  2266  0310  0251               u2675:
  2267  0311                     
  2268                           	skipnc
  2269  0311  1803               	goto	u2671
  2270  0312  2B14               	goto	u2670
  2271  0313  2B15               u2671:
  2272  0314                     	goto	l2808
  2273  0314  2BF1               u2670:
  2274  0315                     	line	119
  2275                           	
  2276                           l2778:	
  2277  0315                     ;mainS1proyect.c: 118:         {;mainS1proyect.c: 119:           Lcd_Clear_8bits();
  2278                           	fcall	_Lcd_Clear_8bits
  2279  0315  120A  158A  275E  120A  118A  	line	120
  2280                           ;mainS1proyect.c: 120:           Lcd_Set_Cursor_8bits(1,1);
  2281                           	clrf	(Lcd_Set_Cursor_8bits@x)
  2282  031A  01F5               	incf	(Lcd_Set_Cursor_8bits@x),f
  2283  031B  0AF5               	movlw	low(01h)
  2284  031C  3001               	fcall	_Lcd_Set_Cursor_8bits
  2285  031D  120A  158A  27BF  120A  118A  	line	121
  2286                           	
  2287                           l2780:	
  2288  0322                     ;mainS1proyect.c: 121:           Lcd_Write_String("Distance = ",8);
  2289                           	movlw	08h
  2290  0322  3008               	bcf	status, 5	;RP0=0, select bank0
  2291  0323  1283               	bcf	status, 6	;RP1=0, select bank0
  2292  0324  1303               	movwf	(Lcd_Write_String@modo)
  2293  0325  00A3               	movlw	0
  2294  0326  3000               	movwf	((Lcd_Write_String@modo))+1
  2295  0327  00A4               	movlw	(low((((STR_3)-__stringbase)|8000h)))&0ffh
  2296  0328  302F               	fcall	_Lcd_Write_String
  2297  0329  120A  118A  27CC  120A  118A  	line	123
  2298                           	
  2299                           l2782:	
  2300  032E                     ;mainS1proyect.c: 123:           numerito = a%10 + 48;
  2301                           	movlw	0Ah
  2302  032E  300A               	movwf	(___awmod@divisor)
  2303  032F  00F3               	movlw	0
  2304  0330  3000               	movwf	((___awmod@divisor))+1
  2305  0331  00F4               	bcf	status, 5	;RP0=0, select bank0
  2306  0332  1283               	bcf	status, 6	;RP1=0, select bank0
  2307  0333  1303               	movf	(_a+1),w
  2308  0334  0852               	movwf	(___awmod@dividend+1)
  2309  0335  00F6               	movf	(_a),w
  2310  0336  0851               	movwf	(___awmod@dividend)
  2311  0337  00F5               	fcall	___awmod
  2312  0338  120A  118A  266D  120A  118A  	movf	(0+(?___awmod)),w
  2313  033D  0873               	addlw	030h
  2314  033E  3E30               	bcf	status, 5	;RP0=0, select bank0
  2315  033F  1283               	bcf	status, 6	;RP1=0, select bank0
  2316  0340  1303               	movwf	(??_main+0)+0
  2317  0341  00CD               	movf	(??_main+0)+0,w
  2318  0342  084D               	movwf	(_numerito)
  2319  0343  00D3               	line	124
  2320                           	
  2321                           l2784:	
  2322  0344                     ;mainS1proyect.c: 124:           Lcd_Set_Cursor_8bits(1,14);
  2323                           	movlw	low(0Eh)
  2324  0344  300E               	movwf	(??_main+0)+0
  2325  0345  00CD               	movf	(??_main+0)+0,w
  2326  0346  084D               	movwf	(Lcd_Set_Cursor_8bits@x)
  2327  0347  00F5               	movlw	low(01h)
  2328  0348  3001               	fcall	_Lcd_Set_Cursor_8bits
  2329  0349  120A  158A  27BF  120A  118A  	line	125
  2330                           	
  2331                           l2786:	
  2332  034E                     ;mainS1proyect.c: 125:           Lcd_Write_Char(numerito,8);
  2333                           	movlw	08h
  2334  034E  3008               	movwf	(Lcd_Write_Char@modo)
  2335  034F  00F4               	movlw	0
  2336  0350  3000               	movwf	((Lcd_Write_Char@modo))+1
  2337  0351  00F5               	bcf	status, 5	;RP0=0, select bank0
  2338  0352  1283               	bcf	status, 6	;RP1=0, select bank0
  2339  0353  1303               	movf	(_numerito),w
  2340  0354  0853               	fcall	_Lcd_Write_Char
  2341  0355  120A  118A  272F  120A  118A  	line	127
  2342                           	
  2343                           l2788:	
  2344  035A                     ;mainS1proyect.c: 127:           a = a/10;
  2345                           	movlw	0Ah
  2346  035A  300A               	movwf	(___awdiv@divisor)
  2347  035B  00F3               	movlw	0
  2348  035C  3000               	movwf	((___awdiv@divisor))+1
  2349  035D  00F4               	bcf	status, 5	;RP0=0, select bank0
  2350  035E  1283               	bcf	status, 6	;RP1=0, select bank0
  2351  035F  1303               	movf	(_a+1),w
  2352  0360  0852               	movwf	(___awdiv@dividend+1)
  2353  0361  00F6               	movf	(_a),w
  2354  0362  0851               	movwf	(___awdiv@dividend)
  2355  0363  00F5               	fcall	___awdiv
  2356  0364  120A  118A  25FA  120A  118A  	movf	(1+(?___awdiv)),w
  2357  0369  0874               	bcf	status, 5	;RP0=0, select bank0
  2358  036A  1283               	bcf	status, 6	;RP1=0, select bank0
  2359  036B  1303               	movwf	(_a+1)
  2360  036C  00D2               	movf	(0+(?___awdiv)),w
  2361  036D  0873               	movwf	(_a)
  2362  036E  00D1               	line	128
  2363                           	
  2364                           l2790:	
  2365  036F                     ;mainS1proyect.c: 128:           numerito = a%10 + 48;
  2366                           	movlw	0Ah
  2367  036F  300A               	movwf	(___awmod@divisor)
  2368  0370  00F3               	movlw	0
  2369  0371  3000               	movwf	((___awmod@divisor))+1
  2370  0372  00F4               	movf	(_a+1),w
  2371  0373  0852               	movwf	(___awmod@dividend+1)
  2372  0374  00F6               	movf	(_a),w
  2373  0375  0851               	movwf	(___awmod@dividend)
  2374  0376  00F5               	fcall	___awmod
  2375  0377  120A  118A  266D  120A  118A  	movf	(0+(?___awmod)),w
  2376  037C  0873               	addlw	030h
  2377  037D  3E30               	bcf	status, 5	;RP0=0, select bank0
  2378  037E  1283               	bcf	status, 6	;RP1=0, select bank0
  2379  037F  1303               	movwf	(??_main+0)+0
  2380  0380  00CD               	movf	(??_main+0)+0,w
  2381  0381  084D               	movwf	(_numerito)
  2382  0382  00D3               	line	129
  2383                           	
  2384                           l2792:	
  2385  0383                     ;mainS1proyect.c: 129:           Lcd_Set_Cursor_8bits(1,13);
  2386                           	movlw	low(0Dh)
  2387  0383  300D               	movwf	(??_main+0)+0
  2388  0384  00CD               	movf	(??_main+0)+0,w
  2389  0385  084D               	movwf	(Lcd_Set_Cursor_8bits@x)
  2390  0386  00F5               	movlw	low(01h)
  2391  0387  3001               	fcall	_Lcd_Set_Cursor_8bits
  2392  0388  120A  158A  27BF  120A  118A  	line	130
  2393                           	
  2394                           l2794:	
  2395  038D                     ;mainS1proyect.c: 130:           Lcd_Write_Char(numerito,8);
  2396                           	movlw	08h
  2397  038D  3008               	movwf	(Lcd_Write_Char@modo)
  2398  038E  00F4               	movlw	0
  2399  038F  3000               	movwf	((Lcd_Write_Char@modo))+1
  2400  0390  00F5               	bcf	status, 5	;RP0=0, select bank0
  2401  0391  1283               	bcf	status, 6	;RP1=0, select bank0
  2402  0392  1303               	movf	(_numerito),w
  2403  0393  0853               	fcall	_Lcd_Write_Char
  2404  0394  120A  118A  272F  120A  118A  	line	132
  2405                           	
  2406                           l2796:	
  2407  0399                     ;mainS1proyect.c: 132:           a = a/10;
  2408                           	movlw	0Ah
  2409  0399  300A               	movwf	(___awdiv@divisor)
  2410  039A  00F3               	movlw	0
  2411  039B  3000               	movwf	((___awdiv@divisor))+1
  2412  039C  00F4               	bcf	status, 5	;RP0=0, select bank0
  2413  039D  1283               	bcf	status, 6	;RP1=0, select bank0
  2414  039E  1303               	movf	(_a+1),w
  2415  039F  0852               	movwf	(___awdiv@dividend+1)
  2416  03A0  00F6               	movf	(_a),w
  2417  03A1  0851               	movwf	(___awdiv@dividend)
  2418  03A2  00F5               	fcall	___awdiv
  2419  03A3  120A  118A  25FA  120A  118A  	movf	(1+(?___awdiv)),w
  2420  03A8  0874               	bcf	status, 5	;RP0=0, select bank0
  2421  03A9  1283               	bcf	status, 6	;RP1=0, select bank0
  2422  03AA  1303               	movwf	(_a+1)
  2423  03AB  00D2               	movf	(0+(?___awdiv)),w
  2424  03AC  0873               	movwf	(_a)
  2425  03AD  00D1               	line	133
  2426                           	
  2427                           l2798:	
  2428  03AE                     ;mainS1proyect.c: 133:           numerito = a%10 + 48;
  2429                           	movlw	0Ah
  2430  03AE  300A               	movwf	(___awmod@divisor)
  2431  03AF  00F3               	movlw	0
  2432  03B0  3000               	movwf	((___awmod@divisor))+1
  2433  03B1  00F4               	movf	(_a+1),w
  2434  03B2  0852               	movwf	(___awmod@dividend+1)
  2435  03B3  00F6               	movf	(_a),w
  2436  03B4  0851               	movwf	(___awmod@dividend)
  2437  03B5  00F5               	fcall	___awmod
  2438  03B6  120A  118A  266D  120A  118A  	movf	(0+(?___awmod)),w
  2439  03BB  0873               	addlw	030h
  2440  03BC  3E30               	bcf	status, 5	;RP0=0, select bank0
  2441  03BD  1283               	bcf	status, 6	;RP1=0, select bank0
  2442  03BE  1303               	movwf	(??_main+0)+0
  2443  03BF  00CD               	movf	(??_main+0)+0,w
  2444  03C0  084D               	movwf	(_numerito)
  2445  03C1  00D3               	line	134
  2446                           	
  2447                           l2800:	
  2448  03C2                     ;mainS1proyect.c: 134:           Lcd_Set_Cursor_8bits(1,12);
  2449                           	movlw	low(0Ch)
  2450  03C2  300C               	movwf	(??_main+0)+0
  2451  03C3  00CD               	movf	(??_main+0)+0,w
  2452  03C4  084D               	movwf	(Lcd_Set_Cursor_8bits@x)
  2453  03C5  00F5               	movlw	low(01h)
  2454  03C6  3001               	fcall	_Lcd_Set_Cursor_8bits
  2455  03C7  120A  158A  27BF  120A  118A  	line	135
  2456                           	
  2457                           l2802:	
  2458  03CC                     ;mainS1proyect.c: 135:           Lcd_Write_Char(numerito,8);
  2459                           	movlw	08h
  2460  03CC  3008               	movwf	(Lcd_Write_Char@modo)
  2461  03CD  00F4               	movlw	0
  2462  03CE  3000               	movwf	((Lcd_Write_Char@modo))+1
  2463  03CF  00F5               	bcf	status, 5	;RP0=0, select bank0
  2464  03D0  1283               	bcf	status, 6	;RP1=0, select bank0
  2465  03D1  1303               	movf	(_numerito),w
  2466  03D2  0853               	fcall	_Lcd_Write_Char
  2467  03D3  120A  118A  272F  120A  118A  	line	137
  2468                           	
  2469                           l2804:	
  2470  03D8                     ;mainS1proyect.c: 137:           Lcd_Set_Cursor_8bits(1,15);
  2471                           	movlw	low(0Fh)
  2472  03D8  300F               	bcf	status, 5	;RP0=0, select bank0
  2473  03D9  1283               	bcf	status, 6	;RP1=0, select bank0
  2474  03DA  1303               	movwf	(??_main+0)+0
  2475  03DB  00CD               	movf	(??_main+0)+0,w
  2476  03DC  084D               	movwf	(Lcd_Set_Cursor_8bits@x)
  2477  03DD  00F5               	movlw	low(01h)
  2478  03DE  3001               	fcall	_Lcd_Set_Cursor_8bits
  2479  03DF  120A  158A  27BF  120A  118A  	line	138
  2480                           	
  2481                           l2806:	
  2482  03E4                     ;mainS1proyect.c: 138:           Lcd_Write_String("cm",8);
  2483                           	movlw	08h
  2484  03E4  3008               	bcf	status, 5	;RP0=0, select bank0
  2485  03E5  1283               	bcf	status, 6	;RP1=0, select bank0
  2486  03E6  1303               	movwf	(Lcd_Write_String@modo)
  2487  03E7  00A3               	movlw	0
  2488  03E8  3000               	movwf	((Lcd_Write_String@modo))+1
  2489  03E9  00A4               	movlw	(low((((STR_4)-__stringbase)|8000h)))&0ffh
  2490  03EA  303B               	fcall	_Lcd_Write_String
  2491  03EB  120A  118A  27CC  120A  118A  	line	139
  2492                           ;mainS1proyect.c: 139:         }
  2493                           	goto	l2812
  2494  03F0  2C0B               	line	140
  2495                           ;mainS1proyect.c: 140:         else
  2496                           	
  2497                           l106:	
  2498  03F1                     	line	142
  2499                           	
  2500                           l2808:	
  2501  03F1                     ;mainS1proyect.c: 141:         {;mainS1proyect.c: 142:           Lcd_Clear_8bits();
  2502                           	fcall	_Lcd_Clear_8bits
  2503  03F1  120A  158A  275E  120A  118A  	line	143
  2504                           ;mainS1proyect.c: 143:           Lcd_Set_Cursor_8bits(1,1);
  2505                           	clrf	(Lcd_Set_Cursor_8bits@x)
  2506  03F6  01F5               	incf	(Lcd_Set_Cursor_8bits@x),f
  2507  03F7  0AF5               	movlw	low(01h)
  2508  03F8  3001               	fcall	_Lcd_Set_Cursor_8bits
  2509  03F9  120A  158A  27BF  120A  118A  	line	144
  2510                           	
  2511                           l2810:	
  2512  03FE                     ;mainS1proyect.c: 144:           Lcd_Write_String("Out of Range",8);
  2513                           	movlw	08h
  2514  03FE  3008               	bcf	status, 5	;RP0=0, select bank0
  2515  03FF  1283               	bcf	status, 6	;RP1=0, select bank0
  2516  0400  1303               	movwf	(Lcd_Write_String@modo)
  2517  0401  00A3               	movlw	0
  2518  0402  3000               	movwf	((Lcd_Write_String@modo))+1
  2519  0403  00A4               	movlw	(low((((STR_5)-__stringbase)|8000h)))&0ffh
  2520  0404  3022               	fcall	_Lcd_Write_String
  2521  0405  120A  118A  27CC  120A  118A  	goto	l2812
  2522  040A  2C0B               	line	145
  2523                           ;mainS1proyect.c: 145:         }
  2524                           	
  2525                           l107:	
  2526  040B                     	line	146
  2527                           	
  2528                           l2812:	
  2529  040B                     ;mainS1proyect.c: 146:         _delay((unsigned long)((400)*(500000/4000.0)));
  2530                           	opt asmopt_push
  2531                           opt asmopt_off
  2532                           movlw	65
  2533  040B  3041               	bcf	status, 5	;RP0=0, select bank0
  2534  040C  1283               	bcf	status, 6	;RP1=0, select bank0
  2535  040D  1303               movwf	((??_main+0)+0+1),f
  2536  040E  00CE               	movlw	237
  2537  040F  30ED               movwf	((??_main+0)+0),f
  2538  0410  00CD               	u2737:
  2539  0411                     decfsz	((??_main+0)+0),f
  2540  0411  0BCD               	goto	u2737
  2541  0412  2C11               	decfsz	((??_main+0)+0+1),f
  2542  0413  0BCE               	goto	u2737
  2543  0414  2C11               	nop2
  2544  0415  2C16               opt asmopt_pop
  2545                           
  2546                           	goto	l2752
  2547  0416  2A91               	line	148
  2548                           ;mainS1proyect.c: 148:     }
  2549                           	
  2550                           l108:	
  2551  0417                     	goto	l2752
  2552  0417  2A91               	
  2553                           l109:	
  2554  0418                     	line	151
  2555                           ;mainS1proyect.c: 150:     return;
  2556                           	
  2557                           l110:	
  2558  0418                     	global	start
  2559                           	ljmp	start
  2560  0418  120A  118A  280C   	opt stack 0
  2561                           GLOBAL	__end_of_main
  2562                           	__end_of_main:
  2563  041B                     	signat	_main,89
  2564                           	global	_initOsc
  2565                           
  2566 ;; *************** function _initOsc *****************
  2567 ;; Defined at:
  2568 ;;		line 9 in file "FuncionOscilador.c"
  2569 ;; Parameters:    Size  Location     Type
  2570 ;;  frec            1    wreg     unsigned char 
  2571 ;; Auto vars:     Size  Location     Type
  2572 ;;  frec            1    5[COMMON] unsigned char 
  2573 ;; Return value:  Size  Location     Type
  2574 ;;                  1    wreg      void 
  2575 ;; Registers used:
  2576 ;;		wreg, fsr0l, fsr0h, status,2, status,0
  2577 ;; Tracked objects:
  2578 ;;		On entry : 0/0
  2579 ;;		On exit  : 0/0
  2580 ;;		Unchanged: 0/0
  2581 ;; Data sizes:     COMMON   BANK0   BANK1   BANK3   BANK2
  2582 ;;      Params:         0       0       0       0       0
  2583 ;;      Locals:         1       0       0       0       0
  2584 ;;      Temps:          2       0       0       0       0
  2585 ;;      Totals:         3       0       0       0       0
  2586 ;;Total ram usage:        3 bytes
  2587 ;; Hardware stack levels used:    1
  2588 ;; Hardware stack levels required when called:    1
  2589 ;; This function calls:
  2590 ;;		Nothing
  2591 ;; This function is called by:
  2592 ;;		_main
  2593 ;; This function uses a non-reentrant model
  2594 ;;
  2595                           psect	text1,local,class=CODE,delta=2,merge=1,group=0
  2596                           	file	"FuncionOscilador.c"
  2597                           	line	9
  2598                           global __ptext1
  2599                           __ptext1:	;psect for function _initOsc
  2600  06D2                     psect	text1
  2601                           	file	"FuncionOscilador.c"
  2602                           	line	9
  2603                           	global	__size_of_initOsc
  2604                           	__size_of_initOsc	equ	__end_of_initOsc-_initOsc
  2605  005D                     	
  2606                           _initOsc:	
  2607  06D2                     ;incstack = 0
  2608                           	opt	stack 6
  2609                           ; Regs used in _initOsc: [wreg-fsr0h+status,2+status,0]
  2610                           ;initOsc@frec stored from wreg
  2611                           	movwf	(initOsc@frec)
  2612  06D2  00F5               	line	10
  2613                           	
  2614                           l1918:	
  2615  06D3                     ;FuncionOscilador.c: 10:     switch(frec){
  2616                           	goto	l1922
  2617  06D3  2F0B               	line	11
  2618                           ;FuncionOscilador.c: 11:         case 0:
  2619                           	
  2620                           l122:	
  2621  06D4                     	line	12
  2622                           ;FuncionOscilador.c: 12:             OSCCONbits.IRCF0 = 0;
  2623                           	bsf	status, 5	;RP0=1, select bank1
  2624  06D4  1683               	bcf	status, 6	;RP1=0, select bank1
  2625  06D5  1303               	bcf	(143)^080h,4	;volatile
  2626  06D6  120F               	line	13
  2627                           ;FuncionOscilador.c: 13:             OSCCONbits.IRCF1 = 0;
  2628                           	bcf	(143)^080h,5	;volatile
  2629  06D7  128F               	line	14
  2630                           ;FuncionOscilador.c: 14:             OSCCONbits.IRCF2 = 0;
  2631                           	bcf	(143)^080h,6	;volatile
  2632  06D8  130F               	line	15
  2633                           ;FuncionOscilador.c: 15:             break;
  2634                           	goto	l123
  2635  06D9  2F2D               	line	16
  2636                           ;FuncionOscilador.c: 16:         case 1:
  2637                           	
  2638                           l124:	
  2639  06DA                     	line	17
  2640                           ;FuncionOscilador.c: 17:             OSCCONbits.IRCF0 = 1;
  2641                           	bsf	status, 5	;RP0=1, select bank1
  2642  06DA  1683               	bcf	status, 6	;RP1=0, select bank1
  2643  06DB  1303               	bsf	(143)^080h,4	;volatile
  2644  06DC  160F               	line	18
  2645                           ;FuncionOscilador.c: 18:             OSCCONbits.IRCF1 = 0;
  2646                           	bcf	(143)^080h,5	;volatile
  2647  06DD  128F               	line	19
  2648                           ;FuncionOscilador.c: 19:             OSCCONbits.IRCF2 = 0;
  2649                           	bcf	(143)^080h,6	;volatile
  2650  06DE  130F               	line	20
  2651                           ;FuncionOscilador.c: 20:             break;
  2652                           	goto	l123
  2653  06DF  2F2D               	line	21
  2654                           ;FuncionOscilador.c: 21:         case 2:
  2655                           	
  2656                           l125:	
  2657  06E0                     	line	22
  2658                           ;FuncionOscilador.c: 22:             OSCCONbits.IRCF0 = 0;
  2659                           	bsf	status, 5	;RP0=1, select bank1
  2660  06E0  1683               	bcf	status, 6	;RP1=0, select bank1
  2661  06E1  1303               	bcf	(143)^080h,4	;volatile
  2662  06E2  120F               	line	23
  2663                           ;FuncionOscilador.c: 23:             OSCCONbits.IRCF1 = 1;
  2664                           	bsf	(143)^080h,5	;volatile
  2665  06E3  168F               	line	24
  2666                           ;FuncionOscilador.c: 24:             OSCCONbits.IRCF2 = 0;
  2667                           	bcf	(143)^080h,6	;volatile
  2668  06E4  130F               	line	25
  2669                           ;FuncionOscilador.c: 25:             break;
  2670                           	goto	l123
  2671  06E5  2F2D               	line	26
  2672                           ;FuncionOscilador.c: 26:         case 3:
  2673                           	
  2674                           l126:	
  2675  06E6                     	line	27
  2676                           ;FuncionOscilador.c: 27:             OSCCONbits.IRCF0 = 1;
  2677                           	bsf	status, 5	;RP0=1, select bank1
  2678  06E6  1683               	bcf	status, 6	;RP1=0, select bank1
  2679  06E7  1303               	bsf	(143)^080h,4	;volatile
  2680  06E8  160F               	line	28
  2681                           ;FuncionOscilador.c: 28:             OSCCONbits.IRCF1 = 1;
  2682                           	bsf	(143)^080h,5	;volatile
  2683  06E9  168F               	line	29
  2684                           ;FuncionOscilador.c: 29:             OSCCONbits.IRCF2 = 0;
  2685                           	bcf	(143)^080h,6	;volatile
  2686  06EA  130F               	line	30
  2687                           ;FuncionOscilador.c: 30:             break;
  2688                           	goto	l123
  2689  06EB  2F2D               	line	31
  2690                           ;FuncionOscilador.c: 31:         case 4:
  2691                           	
  2692                           l127:	
  2693  06EC                     	line	32
  2694                           ;FuncionOscilador.c: 32:             OSCCONbits.IRCF0 = 0;
  2695                           	bsf	status, 5	;RP0=1, select bank1
  2696  06EC  1683               	bcf	status, 6	;RP1=0, select bank1
  2697  06ED  1303               	bcf	(143)^080h,4	;volatile
  2698  06EE  120F               	line	33
  2699                           ;FuncionOscilador.c: 33:             OSCCONbits.IRCF1 = 0;
  2700                           	bcf	(143)^080h,5	;volatile
  2701  06EF  128F               	line	34
  2702                           ;FuncionOscilador.c: 34:             OSCCONbits.IRCF2 = 1;
  2703                           	bsf	(143)^080h,6	;volatile
  2704  06F0  170F               	line	35
  2705                           ;FuncionOscilador.c: 35:             break;
  2706                           	goto	l123
  2707  06F1  2F2D               	line	36
  2708                           ;FuncionOscilador.c: 36:         case 5:
  2709                           	
  2710                           l128:	
  2711  06F2                     	line	37
  2712                           ;FuncionOscilador.c: 37:             OSCCONbits.IRCF0 = 1;
  2713                           	bsf	status, 5	;RP0=1, select bank1
  2714  06F2  1683               	bcf	status, 6	;RP1=0, select bank1
  2715  06F3  1303               	bsf	(143)^080h,4	;volatile
  2716  06F4  160F               	line	38
  2717                           ;FuncionOscilador.c: 38:             OSCCONbits.IRCF1 = 0;
  2718                           	bcf	(143)^080h,5	;volatile
  2719  06F5  128F               	line	39
  2720                           ;FuncionOscilador.c: 39:             OSCCONbits.IRCF2 = 1;
  2721                           	bsf	(143)^080h,6	;volatile
  2722  06F6  170F               	line	40
  2723                           ;FuncionOscilador.c: 40:             break;
  2724                           	goto	l123
  2725  06F7  2F2D               	line	42
  2726                           ;FuncionOscilador.c: 42:         case 6:
  2727                           	
  2728                           l129:	
  2729  06F8                     	line	43
  2730                           ;FuncionOscilador.c: 43:             OSCCONbits.IRCF0 = 0;
  2731                           	bsf	status, 5	;RP0=1, select bank1
  2732  06F8  1683               	bcf	status, 6	;RP1=0, select bank1
  2733  06F9  1303               	bcf	(143)^080h,4	;volatile
  2734  06FA  120F               	line	44
  2735                           ;FuncionOscilador.c: 44:             OSCCONbits.IRCF1 = 1;
  2736                           	bsf	(143)^080h,5	;volatile
  2737  06FB  168F               	line	45
  2738                           ;FuncionOscilador.c: 45:             OSCCONbits.IRCF2 = 1;
  2739                           	bsf	(143)^080h,6	;volatile
  2740  06FC  170F               	line	46
  2741                           ;FuncionOscilador.c: 46:             break;
  2742                           	goto	l123
  2743  06FD  2F2D               	line	47
  2744                           ;FuncionOscilador.c: 47:         case 7:
  2745                           	
  2746                           l130:	
  2747  06FE                     	line	48
  2748                           ;FuncionOscilador.c: 48:             OSCCONbits.IRCF0 = 1;
  2749                           	bsf	status, 5	;RP0=1, select bank1
  2750  06FE  1683               	bcf	status, 6	;RP1=0, select bank1
  2751  06FF  1303               	bsf	(143)^080h,4	;volatile
  2752  0700  160F               	line	49
  2753                           ;FuncionOscilador.c: 49:             OSCCONbits.IRCF1 = 1;
  2754                           	bsf	(143)^080h,5	;volatile
  2755  0701  168F               	line	50
  2756                           ;FuncionOscilador.c: 50:             OSCCONbits.IRCF2 = 1;
  2757                           	bsf	(143)^080h,6	;volatile
  2758  0702  170F               	line	51
  2759                           ;FuncionOscilador.c: 51:             break;
  2760                           	goto	l123
  2761  0703  2F2D               	line	52
  2762                           ;FuncionOscilador.c: 52:         default:
  2763                           	
  2764                           l131:	
  2765  0704                     	line	53
  2766                           ;FuncionOscilador.c: 53:             OSCCONbits.IRCF0 = 0;
  2767                           	bsf	status, 5	;RP0=1, select bank1
  2768  0704  1683               	bcf	status, 6	;RP1=0, select bank1
  2769  0705  1303               	bcf	(143)^080h,4	;volatile
  2770  0706  120F               	line	54
  2771                           ;FuncionOscilador.c: 54:             OSCCONbits.IRCF1 = 1;
  2772                           	bsf	(143)^080h,5	;volatile
  2773  0707  168F               	line	55
  2774                           ;FuncionOscilador.c: 55:             OSCCONbits.IRCF2 = 1;
  2775                           	bsf	(143)^080h,6	;volatile
  2776  0708  170F               	line	56
  2777                           ;FuncionOscilador.c: 56:             break;
  2778                           	goto	l123
  2779  0709  2F2D               	line	57
  2780                           	
  2781                           l1920:	
  2782  070A                     ;FuncionOscilador.c: 57:     }
  2783                           	goto	l123
  2784  070A  2F2D               	
  2785                           l121:	
  2786  070B                     	
  2787                           l1922:	
  2788  070B                     	movf	(initOsc@frec),w
  2789  070B  0875               	movwf	(??_initOsc+0)+0
  2790  070C  00F3               	clrf	(??_initOsc+0)+0+1
  2791  070D  01F4               	; Switch on 2 bytes has been partitioned into a top level switch of size 1, and 1 sub-s
                                 witches
  2792                           ; Switch size 1, requested type "space"
  2793                           ; Number of cases is 1, Range of values is 0 to 0
  2794                           ; switch strategies available:
  2795                           ; Name         Instructions Cycles
  2796                           ; simple_byte            4     3 (average)
  2797                           ; direct_byte           11     8 (fixed)
  2798                           ; jumptable            260     6 (fixed)
  2799                           ;	Chosen strategy is simple_byte
  2800                           
  2801                           	movf 1+(??_initOsc+0)+0,w
  2802  070E  0874               	opt asmopt_push
  2803                           	opt asmopt_off
  2804                           	xorlw	0^0	; case 0
  2805  070F  3A00               	skipnz
  2806  0710  1903               	goto	l2930
  2807  0711  2F13               	goto	l131
  2808  0712  2F04               	opt asmopt_pop
  2809                           	
  2810                           l2930:	
  2811  0713                     ; Switch size 1, requested type "space"
  2812                           ; Number of cases is 8, Range of values is 0 to 7
  2813                           ; switch strategies available:
  2814                           ; Name         Instructions Cycles
  2815                           ; simple_byte           25    13 (average)
  2816                           ; direct_byte           32     8 (fixed)
  2817                           ; jumptable            260     6 (fixed)
  2818                           ;	Chosen strategy is simple_byte
  2819                           
  2820                           	movf 0+(??_initOsc+0)+0,w
  2821  0713  0873               	opt asmopt_push
  2822                           	opt asmopt_off
  2823                           	xorlw	0^0	; case 0
  2824  0714  3A00               	skipnz
  2825  0715  1903               	goto	l122
  2826  0716  2ED4               	xorlw	1^0	; case 1
  2827  0717  3A01               	skipnz
  2828  0718  1903               	goto	l124
  2829  0719  2EDA               	xorlw	2^1	; case 2
  2830  071A  3A03               	skipnz
  2831  071B  1903               	goto	l125
  2832  071C  2EE0               	xorlw	3^2	; case 3
  2833  071D  3A01               	skipnz
  2834  071E  1903               	goto	l126
  2835  071F  2EE6               	xorlw	4^3	; case 4
  2836  0720  3A07               	skipnz
  2837  0721  1903               	goto	l127
  2838  0722  2EEC               	xorlw	5^4	; case 5
  2839  0723  3A01               	skipnz
  2840  0724  1903               	goto	l128
  2841  0725  2EF2               	xorlw	6^5	; case 6
  2842  0726  3A03               	skipnz
  2843  0727  1903               	goto	l129
  2844  0728  2EF8               	xorlw	7^6	; case 7
  2845  0729  3A01               	skipnz
  2846  072A  1903               	goto	l130
  2847  072B  2EFE               	goto	l131
  2848  072C  2F04               	opt asmopt_pop
  2849                           
  2850                           	
  2851                           l123:	
  2852  072D                     	line	59
  2853                           ;FuncionOscilador.c: 59:     OSCCONbits.SCS = 1;
  2854                           	bsf	(143)^080h,0	;volatile
  2855  072D  140F               	line	60
  2856                           	
  2857                           l132:	
  2858  072E                     	return
  2859  072E  0008               	opt stack 0
  2860                           GLOBAL	__end_of_initOsc
  2861                           	__end_of_initOsc:
  2862  072F                     	signat	_initOsc,4217
  2863                           	global	_init
  2864                           
  2865 ;; *************** function _init *****************
  2866 ;; Defined at:
  2867 ;;		line 155 in file "mainS1proyect.c"
  2868 ;; Parameters:    Size  Location     Type
  2869 ;;		None
  2870 ;; Auto vars:     Size  Location     Type
  2871 ;;		None
  2872 ;; Return value:  Size  Location     Type
  2873 ;;                  1    wreg      void 
  2874 ;; Registers used:
  2875 ;;		wreg, status,2
  2876 ;; Tracked objects:
  2877 ;;		On entry : 0/0
  2878 ;;		On exit  : 0/0
  2879 ;;		Unchanged: 0/0
  2880 ;; Data sizes:     COMMON   BANK0   BANK1   BANK3   BANK2
  2881 ;;      Params:         0       0       0       0       0
  2882 ;;      Locals:         0       0       0       0       0
  2883 ;;      Temps:          0       0       0       0       0
  2884 ;;      Totals:         0       0       0       0       0
  2885 ;;Total ram usage:        0 bytes
  2886 ;; Hardware stack levels used:    1
  2887 ;; Hardware stack levels required when called:    1
  2888 ;; This function calls:
  2889 ;;		Nothing
  2890 ;; This function is called by:
  2891 ;;		_main
  2892 ;; This function uses a non-reentrant model
  2893 ;;
  2894                           psect	text2,local,class=CODE,delta=2,merge=1,group=0
  2895                           	file	"mainS1proyect.c"
  2896                           	line	155
  2897                           global __ptext2
  2898                           __ptext2:	;psect for function _init
  2899  0F8F                     psect	text2
  2900                           	file	"mainS1proyect.c"
  2901                           	line	155
  2902                           	global	__size_of_init
  2903                           	__size_of_init	equ	__end_of_init-_init
  2904  0016                     	
  2905                           _init:	
  2906  0F8F                     ;incstack = 0
  2907                           	opt	stack 6
  2908                           ; Regs used in _init: [wreg+status,2]
  2909                           	line	157
  2910                           	
  2911                           l1890:	
  2912  0F8F                     ;mainS1proyect.c: 157:     TRISB = 0;
  2913                           	bsf	status, 5	;RP0=1, select bank1
  2914  0F8F  1683               	bcf	status, 6	;RP1=0, select bank1
  2915  0F90  1303               	clrf	(134)^080h	;volatile
  2916  0F91  0186               	line	158
  2917                           	
  2918                           l1892:	
  2919  0F92                     ;mainS1proyect.c: 158:     TRISA = 0x0F;
  2920                           	movlw	low(0Fh)
  2921  0F92  300F               	movwf	(133)^080h	;volatile
  2922  0F93  0085               	line	160
  2923                           	
  2924                           l1894:	
  2925  0F94                     ;mainS1proyect.c: 160:     TRISD = 0;
  2926                           	clrf	(136)^080h	;volatile
  2927  0F94  0188               	line	161
  2928                           	
  2929                           l1896:	
  2930  0F95                     ;mainS1proyect.c: 161:     TRISC = 0;
  2931                           	clrf	(135)^080h	;volatile
  2932  0F95  0187               	line	162
  2933                           	
  2934                           l1898:	
  2935  0F96                     ;mainS1proyect.c: 162:     TRISE = 0;
  2936                           	clrf	(137)^080h	;volatile
  2937  0F96  0189               	line	163
  2938                           	
  2939                           l1900:	
  2940  0F97                     ;mainS1proyect.c: 163:     ANSEL = 0;
  2941                           	bsf	status, 5	;RP0=1, select bank3
  2942  0F97  1683               	bsf	status, 6	;RP1=1, select bank3
  2943  0F98  1703               	clrf	(392)^0180h	;volatile
  2944  0F99  0188               	line	164
  2945                           	
  2946                           l1902:	
  2947  0F9A                     ;mainS1proyect.c: 164:     ANSELH = 0;
  2948                           	clrf	(393)^0180h	;volatile
  2949  0F9A  0189               	line	165
  2950                           	
  2951                           l1904:	
  2952  0F9B                     ;mainS1proyect.c: 165:     ANSELbits.ANS0 = 1;
  2953                           	bsf	(392)^0180h,0	;volatile
  2954  0F9B  1408               	line	167
  2955                           	
  2956                           l1906:	
  2957  0F9C                     ;mainS1proyect.c: 167:     PORTA = 0;
  2958                           	bcf	status, 5	;RP0=0, select bank0
  2959  0F9C  1283               	bcf	status, 6	;RP1=0, select bank0
  2960  0F9D  1303               	clrf	(5)	;volatile
  2961  0F9E  0185               	line	168
  2962                           	
  2963                           l1908:	
  2964  0F9F                     ;mainS1proyect.c: 168:     PORTB = 0;
  2965                           	clrf	(6)	;volatile
  2966  0F9F  0186               	line	169
  2967                           	
  2968                           l1910:	
  2969  0FA0                     ;mainS1proyect.c: 169:     PORTD = 0;
  2970                           	clrf	(8)	;volatile
  2971  0FA0  0188               	line	170
  2972                           	
  2973                           l1912:	
  2974  0FA1                     ;mainS1proyect.c: 170:     PORTC = 0;
  2975                           	clrf	(7)	;volatile
  2976  0FA1  0187               	line	171
  2977                           	
  2978                           l1914:	
  2979  0FA2                     ;mainS1proyect.c: 171:     PORTE = 0;
  2980                           	clrf	(9)	;volatile
  2981  0FA2  0189               	goto	l113
  2982  0FA3  2FA4               	line	173
  2983                           	
  2984                           l1916:	
  2985  0FA4                     	line	174
  2986                           ;mainS1proyect.c: 173:     return;
  2987                           	
  2988                           l113:	
  2989  0FA4                     	return
  2990  0FA4  0008               	opt stack 0
  2991                           GLOBAL	__end_of_init
  2992                           	__end_of_init:
  2993  0FA5                     	signat	_init,89
  2994                           	global	_funcAdc
  2995                           
  2996 ;; *************** function _funcAdc *****************
  2997 ;; Defined at:
  2998 ;;		line 9 in file "ADCconf.c"
  2999 ;; Parameters:    Size  Location     Type
  3000 ;;  divD            1    wreg     unsigned char 
  3001 ;;  anaP            1    3[COMMON] unsigned char 
  3002 ;;  just            1    4[COMMON] unsigned char 
  3003 ;; Auto vars:     Size  Location     Type
  3004 ;;  divD            1    7[COMMON] unsigned char 
  3005 ;; Return value:  Size  Location     Type
  3006 ;;                  1    wreg      void 
  3007 ;; Registers used:
  3008 ;;		wreg, fsr0l, fsr0h, status,2, status,0
  3009 ;; Tracked objects:
  3010 ;;		On entry : 0/0
  3011 ;;		On exit  : 0/0
  3012 ;;		Unchanged: 0/0
  3013 ;; Data sizes:     COMMON   BANK0   BANK1   BANK3   BANK2
  3014 ;;      Params:         2       0       0       0       0
  3015 ;;      Locals:         1       0       0       0       0
  3016 ;;      Temps:          2       0       0       0       0
  3017 ;;      Totals:         5       0       0       0       0
  3018 ;;Total ram usage:        5 bytes
  3019 ;; Hardware stack levels used:    1
  3020 ;; Hardware stack levels required when called:    1
  3021 ;; This function calls:
  3022 ;;		Nothing
  3023 ;; This function is called by:
  3024 ;;		_main
  3025 ;; This function uses a non-reentrant model
  3026 ;;
  3027                           psect	text3,local,class=CODE,delta=2,merge=1,group=0
  3028                           	file	"ADCconf.c"
  3029                           	line	9
  3030                           global __ptext3
  3031                           __ptext3:	;psect for function _funcAdc
  3032  057B                     psect	text3
  3033                           	file	"ADCconf.c"
  3034                           	line	9
  3035                           	global	__size_of_funcAdc
  3036                           	__size_of_funcAdc	equ	__end_of_funcAdc-_funcAdc
  3037  007F                     	
  3038                           _funcAdc:	
  3039  057B                     ;incstack = 0
  3040                           	opt	stack 6
  3041                           ; Regs used in _funcAdc: [wreg-fsr0h+status,2+status,0]
  3042                           ;funcAdc@divD stored from wreg
  3043                           	movwf	(funcAdc@divD)
  3044  057B  00F7               	line	10
  3045                           	
  3046                           l1928:	
  3047  057C                     ;ADCconf.c: 10:     switch(divD){
  3048                           	goto	l1932
  3049  057C  2D92               	line	11
  3050                           ;ADCconf.c: 11:         case 0:
  3051                           	
  3052                           l368:	
  3053  057D                     	line	12
  3054                           ;ADCconf.c: 12:             ADCON0bits.ADCS0 = 0;
  3055                           	bcf	status, 5	;RP0=0, select bank0
  3056  057D  1283               	bcf	status, 6	;RP1=0, select bank0
  3057  057E  1303               	bcf	(31),6	;volatile
  3058  057F  131F               	line	13
  3059                           ;ADCconf.c: 13:             ADCON0bits.ADCS1 = 0;
  3060                           	bcf	(31),7	;volatile
  3061  0580  139F               	line	14
  3062                           ;ADCconf.c: 14:             break;
  3063                           	goto	l1936
  3064  0581  2DC3               	line	15
  3065                           ;ADCconf.c: 15:         case 1:
  3066                           	
  3067                           l370:	
  3068  0582                     	line	16
  3069                           ;ADCconf.c: 16:             ADCON0bits.ADCS0 = 1;
  3070                           	bcf	status, 5	;RP0=0, select bank0
  3071  0582  1283               	bcf	status, 6	;RP1=0, select bank0
  3072  0583  1303               	bsf	(31),6	;volatile
  3073  0584  171F               	line	17
  3074                           ;ADCconf.c: 17:             ADCON0bits.ADCS1 = 0;
  3075                           	bcf	(31),7	;volatile
  3076  0585  139F               	line	18
  3077                           ;ADCconf.c: 18:             break;
  3078                           	goto	l1936
  3079  0586  2DC3               	line	20
  3080                           ;ADCconf.c: 20:         case 2:
  3081                           	
  3082                           l371:	
  3083  0587                     	line	21
  3084                           ;ADCconf.c: 21:             ADCON0bits.ADCS0 = 0;
  3085                           	bcf	status, 5	;RP0=0, select bank0
  3086  0587  1283               	bcf	status, 6	;RP1=0, select bank0
  3087  0588  1303               	bcf	(31),6	;volatile
  3088  0589  131F               	line	22
  3089                           ;ADCconf.c: 22:             ADCON0bits.ADCS1 = 1;
  3090                           	bsf	(31),7	;volatile
  3091  058A  179F               	line	23
  3092                           ;ADCconf.c: 23:             break;
  3093                           	goto	l1936
  3094  058B  2DC3               	line	25
  3095                           ;ADCconf.c: 25:         default:
  3096                           	
  3097                           l372:	
  3098  058C                     	line	26
  3099                           ;ADCconf.c: 26:             ADCON0bits.ADCS0 = 1;
  3100                           	bcf	status, 5	;RP0=0, select bank0
  3101  058C  1283               	bcf	status, 6	;RP1=0, select bank0
  3102  058D  1303               	bsf	(31),6	;volatile
  3103  058E  171F               	line	27
  3104                           ;ADCconf.c: 27:             ADCON0bits.ADCS1 = 1;
  3105                           	bsf	(31),7	;volatile
  3106  058F  179F               	line	28
  3107                           ;ADCconf.c: 28:             break;
  3108                           	goto	l1936
  3109  0590  2DC3               	line	29
  3110                           	
  3111                           l1930:	
  3112  0591                     ;ADCconf.c: 29:     }
  3113                           	goto	l1936
  3114  0591  2DC3               	
  3115                           l367:	
  3116  0592                     	
  3117                           l1932:	
  3118  0592                     	movf	(funcAdc@divD),w
  3119  0592  0877               	movwf	(??_funcAdc+0)+0
  3120  0593  00F5               	clrf	(??_funcAdc+0)+0+1
  3121  0594  01F6               	; Switch on 2 bytes has been partitioned into a top level switch of size 1, and 1 sub-s
                                 witches
  3122                           ; Switch size 1, requested type "space"
  3123                           ; Number of cases is 1, Range of values is 0 to 0
  3124                           ; switch strategies available:
  3125                           ; Name         Instructions Cycles
  3126                           ; simple_byte            4     3 (average)
  3127                           ; direct_byte           11     8 (fixed)
  3128                           ; jumptable            260     6 (fixed)
  3129                           ;	Chosen strategy is simple_byte
  3130                           
  3131                           	movf 1+(??_funcAdc+0)+0,w
  3132  0595  0876               	opt asmopt_push
  3133                           	opt asmopt_off
  3134                           	xorlw	0^0	; case 0
  3135  0596  3A00               	skipnz
  3136  0597  1903               	goto	l2932
  3137  0598  2D9A               	goto	l372
  3138  0599  2D8C               	opt asmopt_pop
  3139                           	
  3140                           l2932:	
  3141  059A                     ; Switch size 1, requested type "space"
  3142                           ; Number of cases is 3, Range of values is 0 to 2
  3143                           ; switch strategies available:
  3144                           ; Name         Instructions Cycles
  3145                           ; simple_byte           10     6 (average)
  3146                           ; direct_byte           17     8 (fixed)
  3147                           ; jumptable            260     6 (fixed)
  3148                           ;	Chosen strategy is simple_byte
  3149                           
  3150                           	movf 0+(??_funcAdc+0)+0,w
  3151  059A  0875               	opt asmopt_push
  3152                           	opt asmopt_off
  3153                           	xorlw	0^0	; case 0
  3154  059B  3A00               	skipnz
  3155  059C  1903               	goto	l368
  3156  059D  2D7D               	xorlw	1^0	; case 1
  3157  059E  3A01               	skipnz
  3158  059F  1903               	goto	l370
  3159  05A0  2D82               	xorlw	2^1	; case 2
  3160  05A1  3A03               	skipnz
  3161  05A2  1903               	goto	l371
  3162  05A3  2D87               	goto	l372
  3163  05A4  2D8C               	opt asmopt_pop
  3164                           
  3165                           	
  3166                           l369:	
  3167  05A5                     	line	31
  3168                           ;ADCconf.c: 31:     switch(anaP){
  3169                           	goto	l1936
  3170  05A5  2DC3               	line	32
  3171                           ;ADCconf.c: 32:         case 0:
  3172                           	
  3173                           l374:	
  3174  05A6                     	line	33
  3175                           ;ADCconf.c: 33:             ADCON0bits.CHS0 = 0;
  3176                           	bcf	status, 5	;RP0=0, select bank0
  3177  05A6  1283               	bcf	status, 6	;RP1=0, select bank0
  3178  05A7  1303               	bcf	(31),2	;volatile
  3179  05A8  111F               	line	34
  3180                           ;ADCconf.c: 34:             ADCON0bits.CHS1 = 0;
  3181                           	bcf	(31),3	;volatile
  3182  05A9  119F               	line	35
  3183                           ;ADCconf.c: 35:             ADCON0bits.CHS2 = 0;
  3184                           	bcf	(31),4	;volatile
  3185  05AA  121F               	line	36
  3186                           ;ADCconf.c: 36:             ADCON0bits.CHS3 = 0;
  3187                           	bcf	(31),5	;volatile
  3188  05AB  129F               	line	37
  3189                           ;ADCconf.c: 37:             break;
  3190                           	goto	l1940
  3191  05AC  2DE0               	line	39
  3192                           ;ADCconf.c: 39:         case 1:
  3193                           	
  3194                           l376:	
  3195  05AD                     	line	40
  3196                           ;ADCconf.c: 40:             ADCON0bits.CHS0 = 1;
  3197                           	bcf	status, 5	;RP0=0, select bank0
  3198  05AD  1283               	bcf	status, 6	;RP1=0, select bank0
  3199  05AE  1303               	bsf	(31),2	;volatile
  3200  05AF  151F               	line	41
  3201                           ;ADCconf.c: 41:             ADCON0bits.CHS1 = 0;
  3202                           	bcf	(31),3	;volatile
  3203  05B0  119F               	line	42
  3204                           ;ADCconf.c: 42:             ADCON0bits.CHS2 = 0;
  3205                           	bcf	(31),4	;volatile
  3206  05B1  121F               	line	43
  3207                           ;ADCconf.c: 43:             ADCON0bits.CHS3 = 0;
  3208                           	bcf	(31),5	;volatile
  3209  05B2  129F               	line	44
  3210                           ;ADCconf.c: 44:             break;
  3211                           	goto	l1940
  3212  05B3  2DE0               	line	46
  3213                           ;ADCconf.c: 46:         case 2:
  3214                           	
  3215                           l377:	
  3216  05B4                     	line	47
  3217                           ;ADCconf.c: 47:             ADCON0bits.CHS0 = 0;
  3218                           	bcf	status, 5	;RP0=0, select bank0
  3219  05B4  1283               	bcf	status, 6	;RP1=0, select bank0
  3220  05B5  1303               	bcf	(31),2	;volatile
  3221  05B6  111F               	line	48
  3222                           ;ADCconf.c: 48:             ADCON0bits.CHS1 = 1;
  3223                           	bsf	(31),3	;volatile
  3224  05B7  159F               	line	49
  3225                           ;ADCconf.c: 49:             ADCON0bits.CHS2 = 0;
  3226                           	bcf	(31),4	;volatile
  3227  05B8  121F               	line	50
  3228                           ;ADCconf.c: 50:             ADCON0bits.CHS3 = 0;
  3229                           	bcf	(31),5	;volatile
  3230  05B9  129F               	line	51
  3231                           ;ADCconf.c: 51:             break;
  3232                           	goto	l1940
  3233  05BA  2DE0               	line	53
  3234                           ;ADCconf.c: 53:         default:
  3235                           	
  3236                           l378:	
  3237  05BB                     	line	54
  3238                           ;ADCconf.c: 54:             ADCON0bits.CHS0 = 0;
  3239                           	bcf	status, 5	;RP0=0, select bank0
  3240  05BB  1283               	bcf	status, 6	;RP1=0, select bank0
  3241  05BC  1303               	bcf	(31),2	;volatile
  3242  05BD  111F               	line	55
  3243                           ;ADCconf.c: 55:             ADCON0bits.CHS1 = 0;
  3244                           	bcf	(31),3	;volatile
  3245  05BE  119F               	line	56
  3246                           ;ADCconf.c: 56:             ADCON0bits.CHS2 = 0;
  3247                           	bcf	(31),4	;volatile
  3248  05BF  121F               	line	57
  3249                           ;ADCconf.c: 57:             ADCON0bits.CHS3 = 1;
  3250                           	bsf	(31),5	;volatile
  3251  05C0  169F               	line	58
  3252                           ;ADCconf.c: 58:             break;
  3253                           	goto	l1940
  3254  05C1  2DE0               	line	59
  3255                           	
  3256                           l1934:	
  3257  05C2                     ;ADCconf.c: 59:     }
  3258                           	goto	l1940
  3259  05C2  2DE0               	
  3260                           l373:	
  3261  05C3                     	
  3262                           l1936:	
  3263  05C3                     	movf	(funcAdc@anaP),w
  3264  05C3  0873               	movwf	(??_funcAdc+0)+0
  3265  05C4  00F5               	clrf	(??_funcAdc+0)+0+1
  3266  05C5  01F6               	; Switch on 2 bytes has been partitioned into a top level switch of size 1, and 1 sub-s
                                 witches
  3267                           ; Switch size 1, requested type "space"
  3268                           ; Number of cases is 1, Range of values is 0 to 0
  3269                           ; switch strategies available:
  3270                           ; Name         Instructions Cycles
  3271                           ; simple_byte            4     3 (average)
  3272                           ; direct_byte           11     8 (fixed)
  3273                           ; jumptable            260     6 (fixed)
  3274                           ;	Chosen strategy is simple_byte
  3275                           
  3276                           	movf 1+(??_funcAdc+0)+0,w
  3277  05C6  0876               	opt asmopt_push
  3278                           	opt asmopt_off
  3279                           	xorlw	0^0	; case 0
  3280  05C7  3A00               	skipnz
  3281  05C8  1903               	goto	l2934
  3282  05C9  2DCB               	goto	l378
  3283  05CA  2DBB               	opt asmopt_pop
  3284                           	
  3285                           l2934:	
  3286  05CB                     ; Switch size 1, requested type "space"
  3287                           ; Number of cases is 3, Range of values is 0 to 2
  3288                           ; switch strategies available:
  3289                           ; Name         Instructions Cycles
  3290                           ; simple_byte           10     6 (average)
  3291                           ; direct_byte           17     8 (fixed)
  3292                           ; jumptable            260     6 (fixed)
  3293                           ;	Chosen strategy is simple_byte
  3294                           
  3295                           	movf 0+(??_funcAdc+0)+0,w
  3296  05CB  0875               	opt asmopt_push
  3297                           	opt asmopt_off
  3298                           	xorlw	0^0	; case 0
  3299  05CC  3A00               	skipnz
  3300  05CD  1903               	goto	l374
  3301  05CE  2DA6               	xorlw	1^0	; case 1
  3302  05CF  3A01               	skipnz
  3303  05D0  1903               	goto	l376
  3304  05D1  2DAD               	xorlw	2^1	; case 2
  3305  05D2  3A03               	skipnz
  3306  05D3  1903               	goto	l377
  3307  05D4  2DB4               	goto	l378
  3308  05D5  2DBB               	opt asmopt_pop
  3309                           
  3310                           	
  3311                           l375:	
  3312  05D6                     	line	61
  3313                           ;ADCconf.c: 61:     switch(just){
  3314                           	goto	l1940
  3315  05D6  2DE0               	line	62
  3316                           ;ADCconf.c: 62:         case 0:
  3317                           	
  3318                           l380:	
  3319  05D7                     	line	63
  3320                           ;ADCconf.c: 63:             ADCON1bits.ADFM = 0;
  3321                           	bsf	status, 5	;RP0=1, select bank1
  3322  05D7  1683               	bcf	status, 6	;RP1=0, select bank1
  3323  05D8  1303               	bcf	(159)^080h,7	;volatile
  3324  05D9  139F               	line	64
  3325                           ;ADCconf.c: 64:             break;
  3326                           	goto	l381
  3327  05DA  2DED               	line	65
  3328                           ;ADCconf.c: 65:         default:
  3329                           	
  3330                           l382:	
  3331  05DB                     	line	66
  3332                           ;ADCconf.c: 66:             ADCON1bits.ADFM = 1;
  3333                           	bsf	status, 5	;RP0=1, select bank1
  3334  05DB  1683               	bcf	status, 6	;RP1=0, select bank1
  3335  05DC  1303               	bsf	(159)^080h,7	;volatile
  3336  05DD  179F               	line	67
  3337                           ;ADCconf.c: 67:             break;
  3338                           	goto	l381
  3339  05DE  2DED               	line	68
  3340                           	
  3341                           l1938:	
  3342  05DF                     ;ADCconf.c: 68:     }
  3343                           	goto	l381
  3344  05DF  2DED               	
  3345                           l379:	
  3346  05E0                     	
  3347                           l1940:	
  3348  05E0                     	movf	(funcAdc@just),w
  3349  05E0  0874               	movwf	(??_funcAdc+0)+0
  3350  05E1  00F5               	clrf	(??_funcAdc+0)+0+1
  3351  05E2  01F6               	; Switch on 2 bytes has been partitioned into a top level switch of size 1, and 1 sub-s
                                 witches
  3352                           ; Switch size 1, requested type "space"
  3353                           ; Number of cases is 1, Range of values is 0 to 0
  3354                           ; switch strategies available:
  3355                           ; Name         Instructions Cycles
  3356                           ; simple_byte            4     3 (average)
  3357                           ; direct_byte           11     8 (fixed)
  3358                           ; jumptable            260     6 (fixed)
  3359                           ;	Chosen strategy is simple_byte
  3360                           
  3361                           	movf 1+(??_funcAdc+0)+0,w
  3362  05E3  0876               	opt asmopt_push
  3363                           	opt asmopt_off
  3364                           	xorlw	0^0	; case 0
  3365  05E4  3A00               	skipnz
  3366  05E5  1903               	goto	l2936
  3367  05E6  2DE8               	goto	l382
  3368  05E7  2DDB               	opt asmopt_pop
  3369                           	
  3370                           l2936:	
  3371  05E8                     ; Switch size 1, requested type "space"
  3372                           ; Number of cases is 1, Range of values is 0 to 0
  3373                           ; switch strategies available:
  3374                           ; Name         Instructions Cycles
  3375                           ; simple_byte            4     3 (average)
  3376                           ; direct_byte           11     8 (fixed)
  3377                           ; jumptable            260     6 (fixed)
  3378                           ;	Chosen strategy is simple_byte
  3379                           
  3380                           	movf 0+(??_funcAdc+0)+0,w
  3381  05E8  0875               	opt asmopt_push
  3382                           	opt asmopt_off
  3383                           	xorlw	0^0	; case 0
  3384  05E9  3A00               	skipnz
  3385  05EA  1903               	goto	l380
  3386  05EB  2DD7               	goto	l382
  3387  05EC  2DDB               	opt asmopt_pop
  3388                           
  3389                           	
  3390                           l381:	
  3391  05ED                     	line	71
  3392                           ;ADCconf.c: 71:     ADCON0bits.ADON = 1;
  3393                           	bcf	status, 5	;RP0=0, select bank0
  3394  05ED  1283               	bcf	status, 6	;RP1=0, select bank0
  3395  05EE  1303               	bsf	(31),0	;volatile
  3396  05EF  141F               	line	73
  3397                           ;ADCconf.c: 73:     PIR1bits.ADIF = 0;
  3398                           	bcf	(12),6	;volatile
  3399  05F0  130C               	line	74
  3400                           ;ADCconf.c: 74:     PIE1bits.ADIE = 1;
  3401                           	bsf	status, 5	;RP0=1, select bank1
  3402  05F1  1683               	bcf	status, 6	;RP1=0, select bank1
  3403  05F2  1303               	bsf	(140)^080h,6	;volatile
  3404  05F3  170C               	line	75
  3405                           ;ADCconf.c: 75:     INTCONbits.PEIE = 1;
  3406                           	bsf	(11),6	;volatile
  3407  05F4  170B               	line	76
  3408                           ;ADCconf.c: 76:     INTCONbits.GIE = 1;
  3409                           	bsf	(11),7	;volatile
  3410  05F5  178B               	line	78
  3411                           ;ADCconf.c: 78:     ADCON0bits.GO_nDONE = 1;
  3412                           	bcf	status, 5	;RP0=0, select bank0
  3413  05F6  1283               	bcf	status, 6	;RP1=0, select bank0
  3414  05F7  1303               	bsf	(31),1	;volatile
  3415  05F8  149F               	line	81
  3416                           ;ADCconf.c: 80:     return;
  3417                           	
  3418                           l383:	
  3419  05F9                     	return
  3420  05F9  0008               	opt stack 0
  3421                           GLOBAL	__end_of_funcAdc
  3422                           	__end_of_funcAdc:
  3423  05FA                     	signat	_funcAdc,12409
  3424                           	global	___xxtofl
  3425                           
  3426 ;; *************** function ___xxtofl *****************
  3427 ;; Defined at:
  3428 ;;		line 10 in file "C:\Program Files (x86)\Microchip\xc8\v2.00\pic\sources\c90\common\xxtofl.c"
  3429 ;; Parameters:    Size  Location     Type
  3430 ;;  sign            1    wreg     unsigned char 
  3431 ;;  val             4    3[COMMON] long 
  3432 ;; Auto vars:     Size  Location     Type
  3433 ;;  sign            1    4[BANK0 ] unsigned char 
  3434 ;;  arg             4    6[BANK0 ] unsigned long 
  3435 ;;  exp             1    5[BANK0 ] unsigned char 
  3436 ;; Return value:  Size  Location     Type
  3437 ;;                  4    3[COMMON] unsigned char 
  3438 ;; Registers used:
  3439 ;;		wreg, status,2, status,0
  3440 ;; Tracked objects:
  3441 ;;		On entry : 0/0
  3442 ;;		On exit  : 0/0
  3443 ;;		Unchanged: 0/0
  3444 ;; Data sizes:     COMMON   BANK0   BANK1   BANK3   BANK2
  3445 ;;      Params:         4       0       0       0       0
  3446 ;;      Locals:         0       6       0       0       0
  3447 ;;      Temps:          0       4       0       0       0
  3448 ;;      Totals:         4      10       0       0       0
  3449 ;;Total ram usage:       14 bytes
  3450 ;; Hardware stack levels used:    1
  3451 ;; Hardware stack levels required when called:    1
  3452 ;; This function calls:
  3453 ;;		Nothing
  3454 ;; This function is called by:
  3455 ;;		_main
  3456 ;; This function uses a non-reentrant model
  3457 ;;
  3458                           psect	text4,local,class=CODE,delta=2,merge=1,group=1
  3459                           	file	"C:\Program Files (x86)\Microchip\xc8\v2.00\pic\sources\c90\common\xxtofl.c"
  3460                           	line	10
  3461                           global __ptext4
  3462                           __ptext4:	;psect for function ___xxtofl
  3463  041B                     psect	text4
  3464                           	file	"C:\Program Files (x86)\Microchip\xc8\v2.00\pic\sources\c90\common\xxtofl.c"
  3465                           	line	10
  3466                           	global	__size_of___xxtofl
  3467                           	__size_of___xxtofl	equ	__end_of___xxtofl-___xxtofl
  3468  00C4                     	
  3469                           ___xxtofl:	
  3470  041B                     ;incstack = 0
  3471                           	opt	stack 6
  3472                           ; Regs used in ___xxtofl: [wreg+status,2+status,0]
  3473                           ;___xxtofl@sign stored from wreg
  3474                           	bcf	status, 5	;RP0=0, select bank0
  3475  041B  1283               	bcf	status, 6	;RP1=0, select bank0
  3476  041C  1303               	movwf	(___xxtofl@sign)
  3477  041D  00A4               	line	15
  3478                           	
  3479                           l2686:	
  3480  041E                     	movf	((___xxtofl@sign)),w
  3481  041E  0824               	btfsc	status,2
  3482  041F  1903               	goto	u2491
  3483  0420  2C22               	goto	u2490
  3484  0421  2C23               u2491:
  3485  0422                     	goto	l2692
  3486  0422  2C37               u2490:
  3487  0423                     	
  3488                           l2688:	
  3489  0423                     	btfss	(___xxtofl@val+3),7
  3490  0423  1FF6               	goto	u2501
  3491  0424  2C26               	goto	u2500
  3492  0425  2C27               u2501:
  3493  0426                     	goto	l2692
  3494  0426  2C37               u2500:
  3495  0427                     	line	16
  3496                           	
  3497                           l2690:	
  3498  0427                     	comf	(___xxtofl@val)+0,w
  3499  0427  0973               	movwf	(___xxtofl@arg)
  3500  0428  00A6               	comf	(___xxtofl@val)+1,w
  3501  0429  0974               	movwf	(___xxtofl@arg+1)
  3502  042A  00A7               	comf	(___xxtofl@val)+2,w
  3503  042B  0975               	movwf	(___xxtofl@arg+2)
  3504  042C  00A8               	comf	(___xxtofl@val)+3,w
  3505  042D  0976               	movwf	(___xxtofl@arg+3)
  3506  042E  00A9               	incf	(___xxtofl@arg),f
  3507  042F  0AA6               	skipnz
  3508  0430  1903               	incf	(___xxtofl@arg+1),f
  3509  0431  0AA7               	skipnz
  3510  0432  1903               	incf	(___xxtofl@arg+2),f
  3511  0433  0AA8               	skipnz
  3512  0434  1903               	incf	(___xxtofl@arg+3),f
  3513  0435  0AA9               	line	17
  3514                           	goto	l877
  3515  0436  2C3F               	line	18
  3516                           	
  3517                           l876:	
  3518  0437                     	line	19
  3519                           	
  3520                           l2692:	
  3521  0437                     	movf	(___xxtofl@val+3),w
  3522  0437  0876               	movwf	(___xxtofl@arg+3)
  3523  0438  00A9               	movf	(___xxtofl@val+2),w
  3524  0439  0875               	movwf	(___xxtofl@arg+2)
  3525  043A  00A8               	movf	(___xxtofl@val+1),w
  3526  043B  0874               	movwf	(___xxtofl@arg+1)
  3527  043C  00A7               	movf	(___xxtofl@val),w
  3528  043D  0873               	movwf	(___xxtofl@arg)
  3529  043E  00A6               
  3530                           	line	20
  3531                           	
  3532                           l877:	
  3533  043F                     	line	21
  3534                           	movf	(___xxtofl@val+3),w
  3535  043F  0876               	iorwf	(___xxtofl@val+2),w
  3536  0440  0475               	iorwf	(___xxtofl@val+1),w
  3537  0441  0474               	iorwf	(___xxtofl@val),w
  3538  0442  0473               	skipz
  3539  0443  1D03               	goto	u2511
  3540  0444  2C46               	goto	u2510
  3541  0445  2C47               u2511:
  3542  0446                     	goto	l2698
  3543  0446  2C51               u2510:
  3544  0447                     	line	22
  3545                           	
  3546                           l2694:	
  3547  0447                     	movlw	0x0
  3548  0447  3000               	movwf	(?___xxtofl+3)
  3549  0448  00F6               	movlw	0x0
  3550  0449  3000               	movwf	(?___xxtofl+2)
  3551  044A  00F5               	movlw	0x0
  3552  044B  3000               	movwf	(?___xxtofl+1)
  3553  044C  00F4               	movlw	0x0
  3554  044D  3000               	movwf	(?___xxtofl)
  3555  044E  00F3               
  3556                           	goto	l879
  3557  044F  2CDE               	
  3558                           l2696:	
  3559  0450                     	goto	l879
  3560  0450  2CDE               	
  3561                           l878:	
  3562  0451                     	line	23
  3563                           	
  3564                           l2698:	
  3565  0451                     	movlw	low(096h)
  3566  0451  3096               	movwf	(??___xxtofl+0)+0
  3567  0452  00A0               	movf	(??___xxtofl+0)+0,w
  3568  0453  0820               	movwf	(___xxtofl@exp)
  3569  0454  00A5               	line	24
  3570                           	goto	l2702
  3571  0455  2C64               	
  3572                           l881:	
  3573  0456                     	line	25
  3574                           	
  3575                           l2700:	
  3576  0456                     	movlw	low(01h)
  3577  0456  3001               	movwf	(??___xxtofl+0)+0
  3578  0457  00A0               	movf	(??___xxtofl+0)+0,w
  3579  0458  0820               	addwf	(___xxtofl@exp),f
  3580  0459  07A5               	line	26
  3581                           	movlw	01h
  3582  045A  3001               u2525:
  3583  045B                     	clrc
  3584  045B  1003               	rrf	(___xxtofl@arg+3),f
  3585  045C  0CA9               	rrf	(___xxtofl@arg+2),f
  3586  045D  0CA8               	rrf	(___xxtofl@arg+1),f
  3587  045E  0CA7               	rrf	(___xxtofl@arg),f
  3588  045F  0CA6               	addlw	-1
  3589  0460  3EFF               	skipz
  3590  0461  1D03               	goto	u2525
  3591  0462  2C5B               
  3592                           	goto	l2702
  3593  0463  2C64               	line	27
  3594                           	
  3595                           l880:	
  3596  0464                     	line	24
  3597                           	
  3598                           l2702:	
  3599  0464                     	movlw	high highword(0FE000000h)
  3600  0464  30FE               	andwf	(___xxtofl@arg+3),w
  3601  0465  0529               	btfss	status,2
  3602  0466  1D03               	goto	u2531
  3603  0467  2C69               	goto	u2530
  3604  0468  2C6A               u2531:
  3605  0469                     	goto	l2700
  3606  0469  2C56               u2530:
  3607  046A                     	goto	l883
  3608  046A  2C87               	
  3609                           l882:	
  3610  046B                     	line	28
  3611                           	goto	l883
  3612  046B  2C87               	
  3613                           l884:	
  3614  046C                     	line	29
  3615                           	
  3616                           l2704:	
  3617  046C                     	movlw	low(01h)
  3618  046C  3001               	movwf	(??___xxtofl+0)+0
  3619  046D  00A0               	movf	(??___xxtofl+0)+0,w
  3620  046E  0820               	addwf	(___xxtofl@exp),f
  3621  046F  07A5               	line	30
  3622                           	
  3623                           l2706:	
  3624  0470                     	movlw	01h
  3625  0470  3001               	addwf	(___xxtofl@arg),f
  3626  0471  07A6               	movlw	0
  3627  0472  3000               	skipnc
  3628  0473  1803               movlw 1
  3629  0474  3001               	addwf	(___xxtofl@arg+1),f
  3630  0475  07A7               	movlw	0
  3631  0476  3000               	skipnc
  3632  0477  1803               movlw 1
  3633  0478  3001               	addwf	(___xxtofl@arg+2),f
  3634  0479  07A8               	movlw	0
  3635  047A  3000               	skipnc
  3636  047B  1803               movlw 1
  3637  047C  3001               	addwf	(___xxtofl@arg+3),f
  3638  047D  07A9               	line	31
  3639                           	
  3640                           l2708:	
  3641  047E                     	movlw	01h
  3642  047E  3001               u2545:
  3643  047F                     	clrc
  3644  047F  1003               	rrf	(___xxtofl@arg+3),f
  3645  0480  0CA9               	rrf	(___xxtofl@arg+2),f
  3646  0481  0CA8               	rrf	(___xxtofl@arg+1),f
  3647  0482  0CA7               	rrf	(___xxtofl@arg),f
  3648  0483  0CA6               	addlw	-1
  3649  0484  3EFF               	skipz
  3650  0485  1D03               	goto	u2545
  3651  0486  2C7F               
  3652                           	line	32
  3653                           	
  3654                           l883:	
  3655  0487                     	line	28
  3656                           	movlw	high highword(0FF000000h)
  3657  0487  30FF               	andwf	(___xxtofl@arg+3),w
  3658  0488  0529               	btfss	status,2
  3659  0489  1D03               	goto	u2551
  3660  048A  2C8C               	goto	u2550
  3661  048B  2C8D               u2551:
  3662  048C                     	goto	l2704
  3663  048C  2C6C               u2550:
  3664  048D                     	goto	l2712
  3665  048D  2C9B               	
  3666                           l885:	
  3667  048E                     	line	33
  3668                           	goto	l2712
  3669  048E  2C9B               	
  3670                           l887:	
  3671  048F                     	line	34
  3672                           	
  3673                           l2710:	
  3674  048F                     	movlw	01h
  3675  048F  3001               	subwf	(___xxtofl@exp),f
  3676  0490  02A5               	line	35
  3677                           	movlw	01h
  3678  0491  3001               	movwf	(??___xxtofl+0)+0
  3679  0492  00A0               u2565:
  3680  0493                     	clrc
  3681  0493  1003               	rlf	(___xxtofl@arg),f
  3682  0494  0DA6               	rlf	(___xxtofl@arg+1),f
  3683  0495  0DA7               	rlf	(___xxtofl@arg+2),f
  3684  0496  0DA8               	rlf	(___xxtofl@arg+3),f
  3685  0497  0DA9               	decfsz	(??___xxtofl+0)+0
  3686  0498  0BA0               	goto	u2565
  3687  0499  2C93               	goto	l2712
  3688  049A  2C9B               	line	36
  3689                           	
  3690                           l886:	
  3691  049B                     	line	33
  3692                           	
  3693                           l2712:	
  3694  049B                     	btfsc	(___xxtofl@arg+2),(23)&7
  3695  049B  1BA8               	goto	u2571
  3696  049C  2C9E               	goto	u2570
  3697  049D  2C9F               u2571:
  3698  049E                     	goto	l890
  3699  049E  2CA6               u2570:
  3700  049F                     	
  3701                           l2714:	
  3702  049F                     	movlw	low(02h)
  3703  049F  3002               	subwf	(___xxtofl@exp),w
  3704  04A0  0225               	skipnc
  3705  04A1  1803               	goto	u2581
  3706  04A2  2CA4               	goto	u2580
  3707  04A3  2CA5               u2581:
  3708  04A4                     	goto	l2710
  3709  04A4  2C8F               u2580:
  3710  04A5                     	goto	l890
  3711  04A5  2CA6               	
  3712                           l889:	
  3713  04A6                     	
  3714                           l890:	
  3715  04A6                     	line	37
  3716                           	btfsc	(___xxtofl@exp),(0)&7
  3717  04A6  1825               	goto	u2591
  3718  04A7  2CA9               	goto	u2590
  3719  04A8  2CAA               u2591:
  3720  04A9                     	goto	l891
  3721  04A9  2CB2               u2590:
  3722  04AA                     	line	38
  3723                           	
  3724                           l2716:	
  3725  04AA                     	movlw	0FFh
  3726  04AA  30FF               	andwf	(___xxtofl@arg),f
  3727  04AB  05A6               	movlw	0FFh
  3728  04AC  30FF               	andwf	(___xxtofl@arg+1),f
  3729  04AD  05A7               	movlw	07Fh
  3730  04AE  307F               	andwf	(___xxtofl@arg+2),f
  3731  04AF  05A8               	movlw	0FFh
  3732  04B0  30FF               	andwf	(___xxtofl@arg+3),f
  3733  04B1  05A9               	
  3734                           l891:	
  3735  04B2                     	line	39
  3736                           	clrc
  3737  04B2  1003               	rrf	(___xxtofl@exp),f
  3738  04B3  0CA5               
  3739                           	line	40
  3740                           	
  3741                           l2718:	
  3742  04B4                     	movf	(___xxtofl@exp),w
  3743  04B4  0825               	movwf	(??___xxtofl+0)+0
  3744  04B5  00A0               	clrf	(??___xxtofl+0)+0+1
  3745  04B6  01A1               	clrf	(??___xxtofl+0)+0+2
  3746  04B7  01A2               	clrf	(??___xxtofl+0)+0+3
  3747  04B8  01A3               	movlw	018h
  3748  04B9  3018               u2605:
  3749  04BA                     	clrc
  3750  04BA  1003               	rlf	(??___xxtofl+0)+0,f
  3751  04BB  0DA0               	rlf	(??___xxtofl+0)+1,f
  3752  04BC  0DA1               	rlf	(??___xxtofl+0)+2,f
  3753  04BD  0DA2               	rlf	(??___xxtofl+0)+3,f
  3754  04BE  0DA3               u2600:
  3755  04BF                     	addlw	-1
  3756  04BF  3EFF               	skipz
  3757  04C0  1D03               	goto	u2605
  3758  04C1  2CBA               	movf	0+(??___xxtofl+0)+0,w
  3759  04C2  0820               	iorwf	(___xxtofl@arg),f
  3760  04C3  04A6               	movf	1+(??___xxtofl+0)+0,w
  3761  04C4  0821               	iorwf	(___xxtofl@arg+1),f
  3762  04C5  04A7               	movf	2+(??___xxtofl+0)+0,w
  3763  04C6  0822               	iorwf	(___xxtofl@arg+2),f
  3764  04C7  04A8               	movf	3+(??___xxtofl+0)+0,w
  3765  04C8  0823               	iorwf	(___xxtofl@arg+3),f
  3766  04C9  04A9               	line	41
  3767                           	
  3768                           l2720:	
  3769  04CA                     	movf	((___xxtofl@sign)),w
  3770  04CA  0824               	btfsc	status,2
  3771  04CB  1903               	goto	u2611
  3772  04CC  2CCE               	goto	u2610
  3773  04CD  2CCF               u2611:
  3774  04CE                     	goto	l2726
  3775  04CE  2CD5               u2610:
  3776  04CF                     	
  3777                           l2722:	
  3778  04CF                     	btfss	(___xxtofl@val+3),7
  3779  04CF  1FF6               	goto	u2621
  3780  04D0  2CD2               	goto	u2620
  3781  04D1  2CD3               u2621:
  3782  04D2                     	goto	l2726
  3783  04D2  2CD5               u2620:
  3784  04D3                     	line	42
  3785                           	
  3786                           l2724:	
  3787  04D3                     	bsf	(___xxtofl@arg)+(31/8),(31)&7
  3788  04D3  17A9               	goto	l2726
  3789  04D4  2CD5               	
  3790                           l892:	
  3791  04D5                     	line	43
  3792                           	
  3793                           l2726:	
  3794  04D5                     	movf	(___xxtofl@arg+3),w
  3795  04D5  0829               	movwf	(?___xxtofl+3)
  3796  04D6  00F6               	movf	(___xxtofl@arg+2),w
  3797  04D7  0828               	movwf	(?___xxtofl+2)
  3798  04D8  00F5               	movf	(___xxtofl@arg+1),w
  3799  04D9  0827               	movwf	(?___xxtofl+1)
  3800  04DA  00F4               	movf	(___xxtofl@arg),w
  3801  04DB  0826               	movwf	(?___xxtofl)
  3802  04DC  00F3               
  3803                           	goto	l879
  3804  04DD  2CDE               	
  3805                           l2728:	
  3806  04DE                     	line	44
  3807                           	
  3808                           l879:	
  3809  04DE                     	return
  3810  04DE  0008               	opt stack 0
  3811                           GLOBAL	__end_of___xxtofl
  3812                           	__end_of___xxtofl:
  3813  04DF                     	signat	___xxtofl,8316
  3814                           	global	___fltol
  3815                           
  3816 ;; *************** function ___fltol *****************
  3817 ;; Defined at:
  3818 ;;		line 43 in file "C:\Program Files (x86)\Microchip\xc8\v2.00\pic\sources\c90\common\fltol.c"
  3819 ;; Parameters:    Size  Location     Type
  3820 ;;  f1              4   36[BANK0 ] unsigned char 
  3821 ;; Auto vars:     Size  Location     Type
  3822 ;;  exp1            1    8[COMMON] unsigned char 
  3823 ;;  sign1           1    7[COMMON] unsigned char 
  3824 ;; Return value:  Size  Location     Type
  3825 ;;                  4   36[BANK0 ] long 
  3826 ;; Registers used:
  3827 ;;		wreg, status,2, status,0
  3828 ;; Tracked objects:
  3829 ;;		On entry : 0/0
  3830 ;;		On exit  : 0/0
  3831 ;;		Unchanged: 0/0
  3832 ;; Data sizes:     COMMON   BANK0   BANK1   BANK3   BANK2
  3833 ;;      Params:         0       4       0       0       0
  3834 ;;      Locals:         2       0       0       0       0
  3835 ;;      Temps:          0       5       0       0       0
  3836 ;;      Totals:         2       9       0       0       0
  3837 ;;Total ram usage:       11 bytes
  3838 ;; Hardware stack levels used:    1
  3839 ;; Hardware stack levels required when called:    1
  3840 ;; This function calls:
  3841 ;;		Nothing
  3842 ;; This function is called by:
  3843 ;;		_main
  3844 ;; This function uses a non-reentrant model
  3845 ;;
  3846                           psect	text5,local,class=CODE,delta=2,merge=1,group=1
  3847                           	file	"C:\Program Files (x86)\Microchip\xc8\v2.00\pic\sources\c90\common\fltol.c"
  3848                           	line	43
  3849                           global __ptext5
  3850                           __ptext5:	;psect for function ___fltol
  3851  04DF                     psect	text5
  3852                           	file	"C:\Program Files (x86)\Microchip\xc8\v2.00\pic\sources\c90\common\fltol.c"
  3853                           	line	43
  3854                           	global	__size_of___fltol
  3855                           	__size_of___fltol	equ	__end_of___fltol-___fltol
  3856  009C                     	
  3857                           ___fltol:	
  3858  04DF                     ;incstack = 0
  3859                           	opt	stack 6
  3860                           ; Regs used in ___fltol: [wreg+status,2+status,0]
  3861                           	line	47
  3862                           	
  3863                           l2650:	
  3864  04DF                     	bcf	status, 5	;RP0=0, select bank0
  3865  04DF  1283               	bcf	status, 6	;RP1=0, select bank0
  3866  04E0  1303               	movf	(___fltol@f1),w
  3867  04E1  0844               	movwf	(??___fltol+0)+0
  3868  04E2  00C8               	movf	(___fltol@f1+1),w
  3869  04E3  0845               	movwf	((??___fltol+0)+0+1)
  3870  04E4  00C9               	movf	(___fltol@f1+2),w
  3871  04E5  0846               	movwf	((??___fltol+0)+0+2)
  3872  04E6  00CA               	movf	(___fltol@f1+3),w
  3873  04E7  0847               	movwf	((??___fltol+0)+0+3)
  3874  04E8  00CB               	clrc
  3875  04E9  1003               	rlf	(??___fltol+0)+2,w
  3876  04EA  0D4A               	rlf	(??___fltol+0)+3,w
  3877  04EB  0D4B               	movwf	(??___fltol+4)+0
  3878  04EC  00CC               	movf	(??___fltol+4)+0,w
  3879  04ED  084C               	movwf	(___fltol@exp1)
  3880  04EE  00F8               	movf	(((___fltol@exp1))),w
  3881  04EF  0878               	btfss	status,2
  3882  04F0  1D03               	goto	u2391
  3883  04F1  2CF3               	goto	u2390
  3884  04F2  2CF4               u2391:
  3885  04F3                     	goto	l2656
  3886  04F3  2CFE               u2390:
  3887  04F4                     	line	48
  3888                           	
  3889                           l2652:	
  3890  04F4                     	movlw	high highword(0)
  3891  04F4  3000               	movwf	(?___fltol+3)
  3892  04F5  00C7               	movlw	low highword(0)
  3893  04F6  3000               	movwf	(?___fltol+2)
  3894  04F7  00C6               	movlw	high(0)
  3895  04F8  3000               	movwf	(?___fltol+1)
  3896  04F9  00C5               	movlw	low(0)
  3897  04FA  3000               	movwf	(?___fltol)
  3898  04FB  00C4               
  3899                           	goto	l655
  3900  04FC  2D7A               	
  3901                           l2654:	
  3902  04FD                     	goto	l655
  3903  04FD  2D7A               	
  3904                           l654:	
  3905  04FE                     	line	49
  3906                           	
  3907                           l2656:	
  3908  04FE                     	movf	(___fltol@f1),w
  3909  04FE  0844               	movwf	(??___fltol+0)+0
  3910  04FF  00C8               	movf	(___fltol@f1+1),w
  3911  0500  0845               	movwf	((??___fltol+0)+0+1)
  3912  0501  00C9               	movf	(___fltol@f1+2),w
  3913  0502  0846               	movwf	((??___fltol+0)+0+2)
  3914  0503  00CA               	movf	(___fltol@f1+3),w
  3915  0504  0847               	movwf	((??___fltol+0)+0+3)
  3916  0505  00CB               	movlw	01Fh
  3917  0506  301F               u2405:
  3918  0507                     	clrc
  3919  0507  1003               	rrf	(??___fltol+0)+3,f
  3920  0508  0CCB               	rrf	(??___fltol+0)+2,f
  3921  0509  0CCA               	rrf	(??___fltol+0)+1,f
  3922  050A  0CC9               	rrf	(??___fltol+0)+0,f
  3923  050B  0CC8               u2400:
  3924  050C                     	addlw	-1
  3925  050C  3EFF               	skipz
  3926  050D  1D03               	goto	u2405
  3927  050E  2D07               	movf	0+(??___fltol+0)+0,w
  3928  050F  0848               	movwf	(??___fltol+4)+0
  3929  0510  00CC               	movf	(??___fltol+4)+0,w
  3930  0511  084C               	movwf	(___fltol@sign1)
  3931  0512  00F7               	line	50
  3932                           	
  3933                           l2658:	
  3934  0513                     	bsf	(___fltol@f1)+(23/8),(23)&7
  3935  0513  17C6               	line	51
  3936                           	
  3937                           l2660:	
  3938  0514                     	movlw	0FFh
  3939  0514  30FF               	andwf	(___fltol@f1),f
  3940  0515  05C4               	movlw	0FFh
  3941  0516  30FF               	andwf	(___fltol@f1+1),f
  3942  0517  05C5               	movlw	0FFh
  3943  0518  30FF               	andwf	(___fltol@f1+2),f
  3944  0519  05C6               	movlw	0
  3945  051A  3000               	andwf	(___fltol@f1+3),f
  3946  051B  05C7               	line	52
  3947                           	
  3948                           l2662:	
  3949  051C                     	movlw	096h
  3950  051C  3096               	subwf	(___fltol@exp1),f
  3951  051D  02F8               	line	53
  3952                           	
  3953                           l2664:	
  3954  051E                     	btfss	(___fltol@exp1),7
  3955  051E  1FF8               	goto	u2411
  3956  051F  2D21               	goto	u2410
  3957  0520  2D22               u2411:
  3958  0521                     	goto	l2674
  3959  0521  2D47               u2410:
  3960  0522                     	line	54
  3961                           	
  3962                           l2666:	
  3963  0522                     	movf	(___fltol@exp1),w
  3964  0522  0878               	xorlw	80h
  3965  0523  3A80               	addlw	-((-23)^80h)
  3966  0524  3E97               	skipnc
  3967  0525  1803               	goto	u2421
  3968  0526  2D28               	goto	u2420
  3969  0527  2D29               u2421:
  3970  0528                     	goto	l2672
  3971  0528  2D34               u2420:
  3972  0529                     	line	55
  3973                           	
  3974                           l2668:	
  3975  0529                     	movlw	high highword(0)
  3976  0529  3000               	movwf	(?___fltol+3)
  3977  052A  00C7               	movlw	low highword(0)
  3978  052B  3000               	movwf	(?___fltol+2)
  3979  052C  00C6               	movlw	high(0)
  3980  052D  3000               	movwf	(?___fltol+1)
  3981  052E  00C5               	movlw	low(0)
  3982  052F  3000               	movwf	(?___fltol)
  3983  0530  00C4               
  3984                           	goto	l655
  3985  0531  2D7A               	
  3986                           l2670:	
  3987  0532                     	goto	l655
  3988  0532  2D7A               	
  3989                           l657:	
  3990  0533                     	goto	l2672
  3991  0533  2D34               	line	56
  3992                           	
  3993                           l658:	
  3994  0534                     	line	57
  3995                           	
  3996                           l2672:	
  3997  0534                     	movlw	01h
  3998  0534  3001               u2435:
  3999  0535                     	clrc
  4000  0535  1003               	rrf	(___fltol@f1+3),f
  4001  0536  0CC7               	rrf	(___fltol@f1+2),f
  4002  0537  0CC6               	rrf	(___fltol@f1+1),f
  4003  0538  0CC5               	rrf	(___fltol@f1),f
  4004  0539  0CC4               	addlw	-1
  4005  053A  3EFF               	skipz
  4006  053B  1D03               	goto	u2435
  4007  053C  2D35               
  4008                           	line	58
  4009                           	movlw	low(01h)
  4010  053D  3001               	movwf	(??___fltol+0)+0
  4011  053E  00C8               	movf	(??___fltol+0)+0,w
  4012  053F  0848               	addwf	(___fltol@exp1),f
  4013  0540  07F8               	btfss	status,2
  4014  0541  1D03               	goto	u2441
  4015  0542  2D44               	goto	u2440
  4016  0543  2D45               u2441:
  4017  0544                     	goto	l2672
  4018  0544  2D34               u2440:
  4019  0545                     	goto	l2682
  4020  0545  2D6A               	
  4021                           l659:	
  4022  0546                     	line	59
  4023                           	goto	l2682
  4024  0546  2D6A               	
  4025                           l656:	
  4026  0547                     	line	60
  4027                           	
  4028                           l2674:	
  4029  0547                     	movlw	low(020h)
  4030  0547  3020               	subwf	(___fltol@exp1),w
  4031  0548  0278               	skipc
  4032  0549  1C03               	goto	u2451
  4033  054A  2D4C               	goto	u2450
  4034  054B  2D4D               u2451:
  4035  054C                     	goto	l662
  4036  054C  2D63               u2450:
  4037  054D                     	line	61
  4038                           	
  4039                           l2676:	
  4040  054D                     	movlw	high highword(0)
  4041  054D  3000               	movwf	(?___fltol+3)
  4042  054E  00C7               	movlw	low highword(0)
  4043  054F  3000               	movwf	(?___fltol+2)
  4044  0550  00C6               	movlw	high(0)
  4045  0551  3000               	movwf	(?___fltol+1)
  4046  0552  00C5               	movlw	low(0)
  4047  0553  3000               	movwf	(?___fltol)
  4048  0554  00C4               
  4049                           	goto	l655
  4050  0555  2D7A               	
  4051                           l2678:	
  4052  0556                     	goto	l655
  4053  0556  2D7A               	
  4054                           l661:	
  4055  0557                     	line	62
  4056                           	goto	l662
  4057  0557  2D63               	
  4058                           l663:	
  4059  0558                     	line	63
  4060                           	
  4061                           l2680:	
  4062  0558                     	movlw	01h
  4063  0558  3001               	movwf	(??___fltol+0)+0
  4064  0559  00C8               u2465:
  4065  055A                     	clrc
  4066  055A  1003               	rlf	(___fltol@f1),f
  4067  055B  0DC4               	rlf	(___fltol@f1+1),f
  4068  055C  0DC5               	rlf	(___fltol@f1+2),f
  4069  055D  0DC6               	rlf	(___fltol@f1+3),f
  4070  055E  0DC7               	decfsz	(??___fltol+0)+0
  4071  055F  0BC8               	goto	u2465
  4072  0560  2D5A               	line	64
  4073                           	movlw	01h
  4074  0561  3001               	subwf	(___fltol@exp1),f
  4075  0562  02F8               	line	65
  4076                           	
  4077                           l662:	
  4078  0563                     	line	62
  4079                           	movf	((___fltol@exp1)),w
  4080  0563  0878               	btfss	status,2
  4081  0564  1D03               	goto	u2471
  4082  0565  2D67               	goto	u2470
  4083  0566  2D68               u2471:
  4084  0567                     	goto	l2680
  4085  0567  2D58               u2470:
  4086  0568                     	goto	l2682
  4087  0568  2D6A               	
  4088                           l664:	
  4089  0569                     	goto	l2682
  4090  0569  2D6A               	line	66
  4091                           	
  4092                           l660:	
  4093  056A                     	line	67
  4094                           	
  4095                           l2682:	
  4096  056A                     	movf	((___fltol@sign1)),w
  4097  056A  0877               	btfsc	status,2
  4098  056B  1903               	goto	u2481
  4099  056C  2D6E               	goto	u2480
  4100  056D  2D6F               u2481:
  4101  056E                     	goto	l665
  4102  056E  2D7A               u2480:
  4103  056F                     	line	68
  4104                           	
  4105                           l2684:	
  4106  056F                     	comf	(___fltol@f1),f
  4107  056F  09C4               	comf	(___fltol@f1+1),f
  4108  0570  09C5               	comf	(___fltol@f1+2),f
  4109  0571  09C6               	comf	(___fltol@f1+3),f
  4110  0572  09C7               	incf	(___fltol@f1),f
  4111  0573  0AC4               	skipnz
  4112  0574  1903               	incf	(___fltol@f1+1),f
  4113  0575  0AC5               	skipnz
  4114  0576  1903               	incf	(___fltol@f1+2),f
  4115  0577  0AC6               	skipnz
  4116  0578  1903               	incf	(___fltol@f1+3),f
  4117  0579  0AC7               	
  4118                           l665:	
  4119  057A                     	line	69
  4120                           	line	70
  4121                           	
  4122                           l655:	
  4123  057A                     	return
  4124  057A  0008               	opt stack 0
  4125                           GLOBAL	__end_of___fltol
  4126                           	__end_of___fltol:
  4127  057B                     	signat	___fltol,4220
  4128                           	global	___fldiv
  4129                           
  4130 ;; *************** function ___fldiv *****************
  4131 ;; Defined at:
  4132 ;;		line 8 in file "C:\Program Files (x86)\Microchip\xc8\v2.00\pic\sources\c90\common\sprcdiv.c"
  4133 ;; Parameters:    Size  Location     Type
  4134 ;;  a               4   10[BANK0 ] long 
  4135 ;;  b               4   14[BANK0 ] long 
  4136 ;; Auto vars:     Size  Location     Type
  4137 ;;  grs             4   30[BANK0 ] unsigned long 
  4138 ;;  rem             4   23[BANK0 ] unsigned long 
  4139 ;;  new_exp         2   28[BANK0 ] int 
  4140 ;;  aexp            1   35[BANK0 ] unsigned char 
  4141 ;;  bexp            1   34[BANK0 ] unsigned char 
  4142 ;;  sign            1   27[BANK0 ] unsigned char 
  4143 ;; Return value:  Size  Location     Type
  4144 ;;                  4   10[BANK0 ] unsigned char 
  4145 ;; Registers used:
  4146 ;;		wreg, status,2, status,0, btemp+1
  4147 ;; Tracked objects:
  4148 ;;		On entry : 0/0
  4149 ;;		On exit  : 0/0
  4150 ;;		Unchanged: 0/0
  4151 ;; Data sizes:     COMMON   BANK0   BANK1   BANK3   BANK2
  4152 ;;      Params:         0       8       0       0       0
  4153 ;;      Locals:         0      13       0       0       0
  4154 ;;      Temps:          0       5       0       0       0
  4155 ;;      Totals:         0      26       0       0       0
  4156 ;;Total ram usage:       26 bytes
  4157 ;; Hardware stack levels used:    1
  4158 ;; Hardware stack levels required when called:    1
  4159 ;; This function calls:
  4160 ;;		Nothing
  4161 ;; This function is called by:
  4162 ;;		_main
  4163 ;; This function uses a non-reentrant model
  4164 ;;
  4165                           psect	text6,local,class=CODE,delta=2,merge=1,group=1
  4166                           	file	"C:\Program Files (x86)\Microchip\xc8\v2.00\pic\sources\c90\common\sprcdiv.c"
  4167                           	line	8
  4168                           global __ptext6
  4169                           __ptext6:	;psect for function ___fldiv
  4170  001B                     psect	text6
  4171                           	file	"C:\Program Files (x86)\Microchip\xc8\v2.00\pic\sources\c90\common\sprcdiv.c"
  4172                           	line	8
  4173                           	global	__size_of___fldiv
  4174                           	__size_of___fldiv	equ	__end_of___fldiv-___fldiv
  4175  0209                     	
  4176                           ___fldiv:	
  4177  001B                     ;incstack = 0
  4178                           	opt	stack 6
  4179                           ; Regs used in ___fldiv: [wreg+status,2+status,0+btemp+1]
  4180                           	line	26
  4181                           	
  4182                           l2158:	
  4183  001B                     	bcf	status, 5	;RP0=0, select bank0
  4184  001B  1283               	bcf	status, 6	;RP1=0, select bank0
  4185  001C  1303               	movf	0+(___fldiv@b)+03h,w
  4186  001D  0831               	andlw	080h
  4187  001E  3980               	movwf	(??___fldiv+0)+0
  4188  001F  00B2               	movf	(??___fldiv+0)+0,w
  4189  0020  0832               	movwf	(___fldiv@sign)
  4190  0021  00BB               	line	27
  4191                           	
  4192                           l2160:	
  4193  0022                     	movf	0+(___fldiv@b)+03h,w
  4194  0022  0831               	movwf	(??___fldiv+0)+0
  4195  0023  00B2               	addwf	(??___fldiv+0)+0,w
  4196  0024  0732               	movwf	(??___fldiv+1)+0
  4197  0025  00B3               	movf	(??___fldiv+1)+0,w
  4198  0026  0833               	movwf	(___fldiv@bexp)
  4199  0027  00C2               	line	28
  4200                           	
  4201                           l2162:	
  4202  0028                     	btfss	0+(___fldiv@b)+02h,(7)&7
  4203  0028  1FB0               	goto	u1691
  4204  0029  282B               	goto	u1690
  4205  002A  282C               u1691:
  4206  002B                     	goto	l2166
  4207  002B  282E               u1690:
  4208  002C                     	line	29
  4209                           	
  4210                           l2164:	
  4211  002C                     	bsf	(___fldiv@bexp)+(0/8),(0)&7
  4212  002C  1442               	goto	l2166
  4213  002D  282E               	line	30
  4214                           	
  4215                           l811:	
  4216  002E                     	line	33
  4217                           	
  4218                           l2166:	
  4219  002E                     	movf	((___fldiv@bexp)),w
  4220  002E  0842               	btfsc	status,2
  4221  002F  1903               	goto	u1701
  4222  0030  2832               	goto	u1700
  4223  0031  2833               u1701:
  4224  0032                     	goto	l2176
  4225  0032  2844               u1700:
  4226  0033                     	line	35
  4227                           	
  4228                           l2168:	
  4229  0033                     		incf	((___fldiv@bexp)),w
  4230  0033  0A42               	btfss	status,2
  4231  0034  1D03               	goto	u1711
  4232  0035  2837               	goto	u1710
  4233  0036  2838               u1711:
  4234  0037                     	goto	l2172
  4235  0037  2841               u1710:
  4236  0038                     	line	37
  4237                           	
  4238                           l2170:	
  4239  0038                     	movlw	0x0
  4240  0038  3000               	movwf	(___fldiv@b+3)
  4241  0039  00B1               	movlw	0x0
  4242  003A  3000               	movwf	(___fldiv@b+2)
  4243  003B  00B0               	movlw	0x0
  4244  003C  3000               	movwf	(___fldiv@b+1)
  4245  003D  00AF               	movlw	0x0
  4246  003E  3000               	movwf	(___fldiv@b)
  4247  003F  00AE               
  4248                           	goto	l2172
  4249  0040  2841               	line	38
  4250                           	
  4251                           l813:	
  4252  0041                     	line	40
  4253                           	
  4254                           l2172:	
  4255  0041                     	bsf	(___fldiv@b)+(23/8),(23)&7
  4256  0041  17B0               	line	42
  4257                           	
  4258                           l2174:	
  4259  0042                     	clrf	0+(___fldiv@b)+03h
  4260  0042  01B1               	line	43
  4261                           	goto	l2178
  4262  0043  284D               	line	44
  4263                           	
  4264                           l812:	
  4265  0044                     	line	46
  4266                           	
  4267                           l2176:	
  4268  0044                     	movlw	0x0
  4269  0044  3000               	movwf	(___fldiv@b+3)
  4270  0045  00B1               	movlw	0x0
  4271  0046  3000               	movwf	(___fldiv@b+2)
  4272  0047  00B0               	movlw	0x0
  4273  0048  3000               	movwf	(___fldiv@b+1)
  4274  0049  00AF               	movlw	0x0
  4275  004A  3000               	movwf	(___fldiv@b)
  4276  004B  00AE               
  4277                           	goto	l2178
  4278  004C  284D               	line	47
  4279                           	
  4280                           l814:	
  4281  004D                     	line	49
  4282                           	
  4283                           l2178:	
  4284  004D                     	movf	0+(___fldiv@a)+03h,w
  4285  004D  082D               	andlw	080h
  4286  004E  3980               	movwf	(??___fldiv+0)+0
  4287  004F  00B2               	movf	(??___fldiv+0)+0,w
  4288  0050  0832               	xorwf	(___fldiv@sign),f
  4289  0051  06BB               	line	50
  4290                           	
  4291                           l2180:	
  4292  0052                     	movf	0+(___fldiv@a)+03h,w
  4293  0052  082D               	movwf	(??___fldiv+0)+0
  4294  0053  00B2               	addwf	(??___fldiv+0)+0,w
  4295  0054  0732               	movwf	(??___fldiv+1)+0
  4296  0055  00B3               	movf	(??___fldiv+1)+0,w
  4297  0056  0833               	movwf	(___fldiv@aexp)
  4298  0057  00C3               	line	51
  4299                           	
  4300                           l2182:	
  4301  0058                     	btfss	0+(___fldiv@a)+02h,(7)&7
  4302  0058  1FAC               	goto	u1721
  4303  0059  285B               	goto	u1720
  4304  005A  285C               u1721:
  4305  005B                     	goto	l2186
  4306  005B  285E               u1720:
  4307  005C                     	line	52
  4308                           	
  4309                           l2184:	
  4310  005C                     	bsf	(___fldiv@aexp)+(0/8),(0)&7
  4311  005C  1443               	goto	l2186
  4312  005D  285E               	line	53
  4313                           	
  4314                           l815:	
  4315  005E                     	line	56
  4316                           	
  4317                           l2186:	
  4318  005E                     	movf	((___fldiv@aexp)),w
  4319  005E  0843               	btfsc	status,2
  4320  005F  1903               	goto	u1731
  4321  0060  2862               	goto	u1730
  4322  0061  2863               u1731:
  4323  0062                     	goto	l2196
  4324  0062  2874               u1730:
  4325  0063                     	line	58
  4326                           	
  4327                           l2188:	
  4328  0063                     		incf	((___fldiv@aexp)),w
  4329  0063  0A43               	btfss	status,2
  4330  0064  1D03               	goto	u1741
  4331  0065  2867               	goto	u1740
  4332  0066  2868               u1741:
  4333  0067                     	goto	l2192
  4334  0067  2871               u1740:
  4335  0068                     	line	60
  4336                           	
  4337                           l2190:	
  4338  0068                     	movlw	0x0
  4339  0068  3000               	movwf	(___fldiv@a+3)
  4340  0069  00AD               	movlw	0x0
  4341  006A  3000               	movwf	(___fldiv@a+2)
  4342  006B  00AC               	movlw	0x0
  4343  006C  3000               	movwf	(___fldiv@a+1)
  4344  006D  00AB               	movlw	0x0
  4345  006E  3000               	movwf	(___fldiv@a)
  4346  006F  00AA               
  4347                           	goto	l2192
  4348  0070  2871               	line	61
  4349                           	
  4350                           l817:	
  4351  0071                     	line	63
  4352                           	
  4353                           l2192:	
  4354  0071                     	bsf	(___fldiv@a)+(23/8),(23)&7
  4355  0071  17AC               	line	65
  4356                           	
  4357                           l2194:	
  4358  0072                     	clrf	0+(___fldiv@a)+03h
  4359  0072  01AD               	line	66
  4360                           	goto	l818
  4361  0073  287C               	line	67
  4362                           	
  4363                           l816:	
  4364  0074                     	line	69
  4365                           	
  4366                           l2196:	
  4367  0074                     	movlw	0x0
  4368  0074  3000               	movwf	(___fldiv@a+3)
  4369  0075  00AD               	movlw	0x0
  4370  0076  3000               	movwf	(___fldiv@a+2)
  4371  0077  00AC               	movlw	0x0
  4372  0078  3000               	movwf	(___fldiv@a+1)
  4373  0079  00AB               	movlw	0x0
  4374  007A  3000               	movwf	(___fldiv@a)
  4375  007B  00AA               
  4376                           	line	70
  4377                           	
  4378                           l818:	
  4379  007C                     	line	75
  4380                           	movf	(___fldiv@a+3),w
  4381  007C  082D               	iorwf	(___fldiv@a+2),w
  4382  007D  042C               	iorwf	(___fldiv@a+1),w
  4383  007E  042B               	iorwf	(___fldiv@a),w
  4384  007F  042A               	skipz
  4385  0080  1D03               	goto	u1751
  4386  0081  2883               	goto	u1750
  4387  0082  2884               u1751:
  4388  0083                     	goto	l2206
  4389  0083  289E               u1750:
  4390  0084                     	line	76
  4391                           	
  4392                           l2198:	
  4393  0084                     	movlw	high highword(0)
  4394  0084  3000               	movwf	(___fldiv@b+3)
  4395  0085  00B1               	movlw	low highword(0)
  4396  0086  3000               	movwf	(___fldiv@b+2)
  4397  0087  00B0               	movlw	high(0)
  4398  0088  3000               	movwf	(___fldiv@b+1)
  4399  0089  00AF               	movlw	low(0)
  4400  008A  3000               	movwf	(___fldiv@b)
  4401  008B  00AE               
  4402                           	line	77
  4403                           	movlw	080h
  4404  008C  3080               	iorwf	0+(___fldiv@b)+02h,f
  4405  008D  04B0               	movlw	07Fh
  4406  008E  307F               	iorwf	1+(___fldiv@b)+02h,f
  4407  008F  04B1               	line	78
  4408                           	
  4409                           l2200:	
  4410  0090                     	movf	(___fldiv@sign),w
  4411  0090  083B               	movwf	(??___fldiv+0)+0
  4412  0091  00B2               	movf	(??___fldiv+0)+0,w
  4413  0092  0832               	iorwf	0+(___fldiv@b)+03h,f
  4414  0093  04B1               	line	79
  4415                           	
  4416                           l2202:	
  4417  0094                     	movf	(___fldiv@b+3),w
  4418  0094  0831               	movwf	(?___fldiv+3)
  4419  0095  00AD               	movf	(___fldiv@b+2),w
  4420  0096  0830               	movwf	(?___fldiv+2)
  4421  0097  00AC               	movf	(___fldiv@b+1),w
  4422  0098  082F               	movwf	(?___fldiv+1)
  4423  0099  00AB               	movf	(___fldiv@b),w
  4424  009A  082E               	movwf	(?___fldiv)
  4425  009B  00AA               
  4426                           	goto	l820
  4427  009C  2A23               	
  4428                           l2204:	
  4429  009D                     	goto	l820
  4430  009D  2A23               	line	80
  4431                           	
  4432                           l819:	
  4433  009E                     	line	83
  4434                           	
  4435                           l2206:	
  4436  009E                     	movf	((___fldiv@bexp)),w
  4437  009E  0842               	btfss	status,2
  4438  009F  1D03               	goto	u1761
  4439  00A0  28A2               	goto	u1760
  4440  00A1  28A3               u1761:
  4441  00A2                     	goto	l2212
  4442  00A2  28B5               u1760:
  4443  00A3                     	line	84
  4444                           	
  4445                           l2208:	
  4446  00A3                     	movlw	high highword(0)
  4447  00A3  3000               	movwf	(___fldiv@b+3)
  4448  00A4  00B1               	movlw	low highword(0)
  4449  00A5  3000               	movwf	(___fldiv@b+2)
  4450  00A6  00B0               	movlw	high(0)
  4451  00A7  3000               	movwf	(___fldiv@b+1)
  4452  00A8  00AF               	movlw	low(0)
  4453  00A9  3000               	movwf	(___fldiv@b)
  4454  00AA  00AE               
  4455                           	line	85
  4456                           	movf	(___fldiv@b+3),w
  4457  00AB  0831               	movwf	(?___fldiv+3)
  4458  00AC  00AD               	movf	(___fldiv@b+2),w
  4459  00AD  0830               	movwf	(?___fldiv+2)
  4460  00AE  00AC               	movf	(___fldiv@b+1),w
  4461  00AF  082F               	movwf	(?___fldiv+1)
  4462  00B0  00AB               	movf	(___fldiv@b),w
  4463  00B1  082E               	movwf	(?___fldiv)
  4464  00B2  00AA               
  4465                           	goto	l820
  4466  00B3  2A23               	
  4467                           l2210:	
  4468  00B4                     	goto	l820
  4469  00B4  2A23               	line	86
  4470                           	
  4471                           l821:	
  4472  00B5                     	line	89
  4473                           	
  4474                           l2212:	
  4475  00B5                     	movf	(___fldiv@aexp),w
  4476  00B5  0843               	movwf	(??___fldiv+0)+0
  4477  00B6  00B2               	clrf	(??___fldiv+0)+0+1
  4478  00B7  01B3               	comf	(??___fldiv+0)+0,f
  4479  00B8  09B2               	comf	(??___fldiv+0)+1,f
  4480  00B9  09B3               	incf	(??___fldiv+0)+0,f
  4481  00BA  0AB2               	skipnz
  4482  00BB  1903               	incf	(??___fldiv+0)+1,f
  4483  00BC  0AB3               	movf	(___fldiv@bexp),w
  4484  00BD  0842               	addwf	0+(??___fldiv+0)+0,w
  4485  00BE  0732               	movwf	(??___fldiv+2)+0
  4486  00BF  00B4               	movf	1+(??___fldiv+0)+0,w
  4487  00C0  0833               	skipnc
  4488  00C1  1803               	incf	1+(??___fldiv+0)+0,w
  4489  00C2  0A33               	movwf	((??___fldiv+2)+0)+1
  4490  00C3  00B5               	movf	0+(??___fldiv+2)+0,w
  4491  00C4  0834               	addlw	low(07Fh)
  4492  00C5  3E7F               	movwf	(___fldiv@new_exp)
  4493  00C6  00BC               	movf	1+(??___fldiv+2)+0,w
  4494  00C7  0835               	skipnc
  4495  00C8  1803               	addlw	1
  4496  00C9  3E01               	addlw	high(07Fh)
  4497  00CA  3E00               	movwf	1+(___fldiv@new_exp)
  4498  00CB  00BD               	line	92
  4499                           	
  4500                           l2214:	
  4501  00CC                     	movf	(___fldiv@b+3),w
  4502  00CC  0831               	movwf	(___fldiv@rem+3)
  4503  00CD  00BA               	movf	(___fldiv@b+2),w
  4504  00CE  0830               	movwf	(___fldiv@rem+2)
  4505  00CF  00B9               	movf	(___fldiv@b+1),w
  4506  00D0  082F               	movwf	(___fldiv@rem+1)
  4507  00D1  00B8               	movf	(___fldiv@b),w
  4508  00D2  082E               	movwf	(___fldiv@rem)
  4509  00D3  00B7               
  4510                           	line	93
  4511                           	
  4512                           l2216:	
  4513  00D4                     	movlw	high highword(0)
  4514  00D4  3000               	movwf	(___fldiv@b+3)
  4515  00D5  00B1               	movlw	low highword(0)
  4516  00D6  3000               	movwf	(___fldiv@b+2)
  4517  00D7  00B0               	movlw	high(0)
  4518  00D8  3000               	movwf	(___fldiv@b+1)
  4519  00D9  00AF               	movlw	low(0)
  4520  00DA  3000               	movwf	(___fldiv@b)
  4521  00DB  00AE               
  4522                           	line	94
  4523                           	
  4524                           l2218:	
  4525  00DC                     	movlw	high highword(0)
  4526  00DC  3000               	movwf	(___fldiv@grs+3)
  4527  00DD  00C1               	movlw	low highword(0)
  4528  00DE  3000               	movwf	(___fldiv@grs+2)
  4529  00DF  00C0               	movlw	high(0)
  4530  00E0  3000               	movwf	(___fldiv@grs+1)
  4531  00E1  00BF               	movlw	low(0)
  4532  00E2  3000               	movwf	(___fldiv@grs)
  4533  00E3  00BE               
  4534                           	line	96
  4535                           	
  4536                           l2220:	
  4537  00E4                     	clrf	(___fldiv@aexp)
  4538  00E4  01C3               	line	97
  4539                           	goto	l2240
  4540  00E5  2934               	
  4541                           l823:	
  4542  00E6                     	line	100
  4543                           	
  4544                           l2222:	
  4545  00E6                     	movf	((___fldiv@aexp)),w
  4546  00E6  0843               	btfsc	status,2
  4547  00E7  1903               	goto	u1771
  4548  00E8  28EA               	goto	u1770
  4549  00E9  28EB               u1771:
  4550  00EA                     	goto	l2232
  4551  00EA  290D               u1770:
  4552  00EB                     	line	101
  4553                           	
  4554                           l2224:	
  4555  00EB                     	movlw	01h
  4556  00EB  3001               	movwf	(??___fldiv+0)+0
  4557  00EC  00B2               u1785:
  4558  00ED                     	clrc
  4559  00ED  1003               	rlf	(___fldiv@rem),f
  4560  00EE  0DB7               	rlf	(___fldiv@rem+1),f
  4561  00EF  0DB8               	rlf	(___fldiv@rem+2),f
  4562  00F0  0DB9               	rlf	(___fldiv@rem+3),f
  4563  00F1  0DBA               	decfsz	(??___fldiv+0)+0
  4564  00F2  0BB2               	goto	u1785
  4565  00F3  28ED               	line	102
  4566                           	movlw	01h
  4567  00F4  3001               	movwf	(??___fldiv+0)+0
  4568  00F5  00B2               u1795:
  4569  00F6                     	clrc
  4570  00F6  1003               	rlf	(___fldiv@b),f
  4571  00F7  0DAE               	rlf	(___fldiv@b+1),f
  4572  00F8  0DAF               	rlf	(___fldiv@b+2),f
  4573  00F9  0DB0               	rlf	(___fldiv@b+3),f
  4574  00FA  0DB1               	decfsz	(??___fldiv+0)+0
  4575  00FB  0BB2               	goto	u1795
  4576  00FC  28F6               	line	103
  4577                           	
  4578                           l2226:	
  4579  00FD                     	btfss	(___fldiv@grs+3),(31)&7
  4580  00FD  1FC1               	goto	u1801
  4581  00FE  2900               	goto	u1800
  4582  00FF  2901               u1801:
  4583  0100                     	goto	l2230
  4584  0100  2903               u1800:
  4585  0101                     	line	104
  4586                           	
  4587                           l2228:	
  4588  0101                     	bsf	(___fldiv@b)+(0/8),(0)&7
  4589  0101  142E               	goto	l2230
  4590  0102  2903               	line	105
  4591                           	
  4592                           l825:	
  4593  0103                     	line	106
  4594                           	
  4595                           l2230:	
  4596  0103                     	movlw	01h
  4597  0103  3001               	movwf	(??___fldiv+0)+0
  4598  0104  00B2               u1815:
  4599  0105                     	clrc
  4600  0105  1003               	rlf	(___fldiv@grs),f
  4601  0106  0DBE               	rlf	(___fldiv@grs+1),f
  4602  0107  0DBF               	rlf	(___fldiv@grs+2),f
  4603  0108  0DC0               	rlf	(___fldiv@grs+3),f
  4604  0109  0DC1               	decfsz	(??___fldiv+0)+0
  4605  010A  0BB2               	goto	u1815
  4606  010B  2905               	goto	l2232
  4607  010C  290D               	line	107
  4608                           	
  4609                           l824:	
  4610  010D                     	line	112
  4611                           	
  4612                           l2232:	
  4613  010D                     	movf	(___fldiv@a+3),w
  4614  010D  082D               	subwf	(___fldiv@rem+3),w
  4615  010E  023A               	skipz
  4616  010F  1D03               	goto	u1825
  4617  0110  291B               	movf	(___fldiv@a+2),w
  4618  0111  082C               	subwf	(___fldiv@rem+2),w
  4619  0112  0239               	skipz
  4620  0113  1D03               	goto	u1825
  4621  0114  291B               	movf	(___fldiv@a+1),w
  4622  0115  082B               	subwf	(___fldiv@rem+1),w
  4623  0116  0238               	skipz
  4624  0117  1D03               	goto	u1825
  4625  0118  291B               	movf	(___fldiv@a),w
  4626  0119  082A               	subwf	(___fldiv@rem),w
  4627  011A  0237               u1825:
  4628  011B                     	skipc
  4629  011B  1C03               	goto	u1821
  4630  011C  291E               	goto	u1820
  4631  011D  291F               u1821:
  4632  011E                     	goto	l2238
  4633  011E  292F               u1820:
  4634  011F                     	line	115
  4635                           	
  4636                           l2234:	
  4637  011F                     	bsf	(___fldiv@grs)+(30/8),(30)&7
  4638  011F  1741               	line	116
  4639                           	
  4640                           l2236:	
  4641  0120                     	movf	(___fldiv@a),w
  4642  0120  082A               	subwf	(___fldiv@rem),f
  4643  0121  02B7               	movf	(___fldiv@a+1),w
  4644  0122  082B               	skipc
  4645  0123  1C03               	incfsz	(___fldiv@a+1),w
  4646  0124  0F2B               	subwf	(___fldiv@rem+1),f
  4647  0125  02B8               	movf	(___fldiv@a+2),w
  4648  0126  082C               	skipc
  4649  0127  1C03               	incfsz	(___fldiv@a+2),w
  4650  0128  0F2C               	subwf	(___fldiv@rem+2),f
  4651  0129  02B9               	movf	(___fldiv@a+3),w
  4652  012A  082D               	skipc
  4653  012B  1C03               	incfsz	(___fldiv@a+3),w
  4654  012C  0F2D               	subwf	(___fldiv@rem+3),f
  4655  012D  02BA               	goto	l2238
  4656  012E  292F               	line	117
  4657                           	
  4658                           l826:	
  4659  012F                     	line	118
  4660                           	
  4661                           l2238:	
  4662  012F                     	movlw	low(01h)
  4663  012F  3001               	movwf	(??___fldiv+0)+0
  4664  0130  00B2               	movf	(??___fldiv+0)+0,w
  4665  0131  0832               	addwf	(___fldiv@aexp),f
  4666  0132  07C3               	goto	l2240
  4667  0133  2934               	line	119
  4668                           	
  4669                           l822:	
  4670  0134                     	line	97
  4671                           	
  4672                           l2240:	
  4673  0134                     	movlw	low(01Ah)
  4674  0134  301A               	subwf	(___fldiv@aexp),w
  4675  0135  0243               	skipc
  4676  0136  1C03               	goto	u1831
  4677  0137  2939               	goto	u1830
  4678  0138  293A               u1831:
  4679  0139                     	goto	l2222
  4680  0139  28E6               u1830:
  4681  013A                     	goto	l2242
  4682  013A  293B               	
  4683                           l827:	
  4684  013B                     	line	122
  4685                           	
  4686                           l2242:	
  4687  013B                     	movf	(___fldiv@rem+3),w
  4688  013B  083A               	iorwf	(___fldiv@rem+2),w
  4689  013C  0439               	iorwf	(___fldiv@rem+1),w
  4690  013D  0438               	iorwf	(___fldiv@rem),w
  4691  013E  0437               	skipnz
  4692  013F  1903               	goto	u1841
  4693  0140  2942               	goto	u1840
  4694  0141  2943               u1841:
  4695  0142                     	goto	l2256
  4696  0142  2965               u1840:
  4697  0143                     	line	123
  4698                           	
  4699                           l2244:	
  4700  0143                     	bsf	(___fldiv@grs)+(0/8),(0)&7
  4701  0143  143E               	goto	l2256
  4702  0144  2965               	line	124
  4703                           	
  4704                           l828:	
  4705  0145                     	line	127
  4706                           	goto	l2256
  4707  0145  2965               	
  4708                           l830:	
  4709  0146                     	line	128
  4710                           	
  4711                           l2246:	
  4712  0146                     	movlw	01h
  4713  0146  3001               	movwf	(??___fldiv+0)+0
  4714  0147  00B2               u1855:
  4715  0148                     	clrc
  4716  0148  1003               	rlf	(___fldiv@b),f
  4717  0149  0DAE               	rlf	(___fldiv@b+1),f
  4718  014A  0DAF               	rlf	(___fldiv@b+2),f
  4719  014B  0DB0               	rlf	(___fldiv@b+3),f
  4720  014C  0DB1               	decfsz	(??___fldiv+0)+0
  4721  014D  0BB2               	goto	u1855
  4722  014E  2948               	line	129
  4723                           	
  4724                           l2248:	
  4725  014F                     	btfss	(___fldiv@grs+3),(31)&7
  4726  014F  1FC1               	goto	u1861
  4727  0150  2952               	goto	u1860
  4728  0151  2953               u1861:
  4729  0152                     	goto	l2252
  4730  0152  2955               u1860:
  4731  0153                     	line	130
  4732                           	
  4733                           l2250:	
  4734  0153                     	bsf	(___fldiv@b)+(0/8),(0)&7
  4735  0153  142E               	goto	l2252
  4736  0154  2955               	line	131
  4737                           	
  4738                           l831:	
  4739  0155                     	line	132
  4740                           	
  4741                           l2252:	
  4742  0155                     	movlw	01h
  4743  0155  3001               	movwf	(??___fldiv+0)+0
  4744  0156  00B2               u1875:
  4745  0157                     	clrc
  4746  0157  1003               	rlf	(___fldiv@grs),f
  4747  0158  0DBE               	rlf	(___fldiv@grs+1),f
  4748  0159  0DBF               	rlf	(___fldiv@grs+2),f
  4749  015A  0DC0               	rlf	(___fldiv@grs+3),f
  4750  015B  0DC1               	decfsz	(??___fldiv+0)+0
  4751  015C  0BB2               	goto	u1875
  4752  015D  2957               	line	133
  4753                           	
  4754                           l2254:	
  4755  015E                     	movlw	0FFh
  4756  015E  30FF               	addwf	(___fldiv@new_exp),f
  4757  015F  07BC               	skipnc
  4758  0160  1803               	incf	(___fldiv@new_exp+1),f
  4759  0161  0ABD               	movlw	0FFh
  4760  0162  30FF               	addwf	(___fldiv@new_exp+1),f
  4761  0163  07BD               	goto	l2256
  4762  0164  2965               	line	134
  4763                           	
  4764                           l829:	
  4765  0165                     	line	127
  4766                           	
  4767                           l2256:	
  4768  0165                     	btfss	(___fldiv@b+2),(23)&7
  4769  0165  1FB0               	goto	u1881
  4770  0166  2968               	goto	u1880
  4771  0167  2969               u1881:
  4772  0168                     	goto	l2246
  4773  0168  2946               u1880:
  4774  0169                     	goto	l2258
  4775  0169  296A               	
  4776                           l832:	
  4777  016A                     	line	139
  4778                           	
  4779                           l2258:	
  4780  016A                     	clrf	(___fldiv@aexp)
  4781  016A  01C3               	line	140
  4782                           	
  4783                           l2260:	
  4784  016B                     	btfss	(___fldiv@grs+3),(31)&7
  4785  016B  1FC1               	goto	u1891
  4786  016C  296E               	goto	u1890
  4787  016D  296F               u1891:
  4788  016E                     	goto	l2268
  4789  016E  298F               u1890:
  4790  016F                     	line	141
  4791                           	
  4792                           l2262:	
  4793  016F                     	movlw	0FFh
  4794  016F  30FF               	andwf	(___fldiv@grs),w
  4795  0170  053E               	movwf	(??___fldiv+0)+0
  4796  0171  00B2               	movlw	0FFh
  4797  0172  30FF               	andwf	(___fldiv@grs+1),w
  4798  0173  053F               	movwf	((??___fldiv+0)+0+1)
  4799  0174  00B3               	movlw	0FFh
  4800  0175  30FF               	andwf	(___fldiv@grs+2),w
  4801  0176  0540               	movwf	((??___fldiv+0)+0+2)
  4802  0177  00B4               	movlw	07Fh
  4803  0178  307F               	andwf	(___fldiv@grs+3),w
  4804  0179  0541               	movwf	((??___fldiv+0)+0+3)
  4805  017A  00B5               	movf	3+(??___fldiv+0)+0,w
  4806  017B  0835               	iorwf	2+(??___fldiv+0)+0,w
  4807  017C  0434               	iorwf	1+(??___fldiv+0)+0,w
  4808  017D  0433               	iorwf	0+(??___fldiv+0)+0,w
  4809  017E  0432               	skipnz
  4810  017F  1903               	goto	u1901
  4811  0180  2982               	goto	u1900
  4812  0181  2983               u1901:
  4813  0182                     	goto	l834
  4814  0182  2986               u1900:
  4815  0183                     	line	142
  4816                           	
  4817                           l2264:	
  4818  0183                     	clrf	(___fldiv@aexp)
  4819  0183  01C3               	incf	(___fldiv@aexp),f
  4820  0184  0AC3               	line	143
  4821                           	goto	l2268
  4822  0185  298F               	line	144
  4823                           	
  4824                           l834:	
  4825  0186                     	line	145
  4826                           	btfss	(___fldiv@b),(0)&7
  4827  0186  1C2E               	goto	u1911
  4828  0187  2989               	goto	u1910
  4829  0188  298A               u1911:
  4830  0189                     	goto	l2268
  4831  0189  298F               u1910:
  4832  018A                     	line	146
  4833                           	
  4834                           l2266:	
  4835  018A                     	clrf	(___fldiv@aexp)
  4836  018A  01C3               	incf	(___fldiv@aexp),f
  4837  018B  0AC3               	goto	l2268
  4838  018C  298F               	line	147
  4839                           	
  4840                           l836:	
  4841  018D                     	goto	l2268
  4842  018D  298F               	line	148
  4843                           	
  4844                           l835:	
  4845  018E                     	goto	l2268
  4846  018E  298F               	line	149
  4847                           	
  4848                           l833:	
  4849  018F                     	line	150
  4850                           	
  4851                           l2268:	
  4852  018F                     	movf	((___fldiv@aexp)),w
  4853  018F  0843               	btfsc	status,2
  4854  0190  1903               	goto	u1921
  4855  0191  2993               	goto	u1920
  4856  0192  2994               u1921:
  4857  0193                     	goto	l2278
  4858  0193  29C7               u1920:
  4859  0194                     	line	151
  4860                           	
  4861                           l2270:	
  4862  0194                     	movlw	01h
  4863  0194  3001               	addwf	(___fldiv@b),f
  4864  0195  07AE               	movlw	0
  4865  0196  3000               	skipnc
  4866  0197  1803               movlw 1
  4867  0198  3001               	addwf	(___fldiv@b+1),f
  4868  0199  07AF               	movlw	0
  4869  019A  3000               	skipnc
  4870  019B  1803               movlw 1
  4871  019C  3001               	addwf	(___fldiv@b+2),f
  4872  019D  07B0               	movlw	0
  4873  019E  3000               	skipnc
  4874  019F  1803               movlw 1
  4875  01A0  3001               	addwf	(___fldiv@b+3),f
  4876  01A1  07B1               	line	152
  4877                           	
  4878                           l2272:	
  4879  01A2                     	btfss	(___fldiv@b+3),(24)&7
  4880  01A2  1C31               	goto	u1931
  4881  01A3  29A5               	goto	u1930
  4882  01A4  29A6               u1931:
  4883  01A5                     	goto	l2278
  4884  01A5  29C7               u1930:
  4885  01A6                     	line	153
  4886                           	
  4887                           l2274:	
  4888  01A6                     	movf	(___fldiv@b),w
  4889  01A6  082E               	movwf	(??___fldiv+0)+0
  4890  01A7  00B2               	movf	(___fldiv@b+1),w
  4891  01A8  082F               	movwf	((??___fldiv+0)+0+1)
  4892  01A9  00B3               	movf	(___fldiv@b+2),w
  4893  01AA  0830               	movwf	((??___fldiv+0)+0+2)
  4894  01AB  00B4               	movf	(___fldiv@b+3),w
  4895  01AC  0831               	movwf	((??___fldiv+0)+0+3)
  4896  01AD  00B5               	movlw	01h
  4897  01AE  3001               	movwf	(??___fldiv+4)+0
  4898  01AF  00B6               u1945:
  4899  01B0                     	rlf	(??___fldiv+0)+3,w
  4900  01B0  0D35               	rrf	(??___fldiv+0)+3,f
  4901  01B1  0CB5               	rrf	(??___fldiv+0)+2,f
  4902  01B2  0CB4               	rrf	(??___fldiv+0)+1,f
  4903  01B3  0CB3               	rrf	(??___fldiv+0)+0,f
  4904  01B4  0CB2               u1940:
  4905  01B5                     	decfsz	(??___fldiv+4)+0,f
  4906  01B5  0BB6               	goto	u1945
  4907  01B6  29B0               	movf	3+(??___fldiv+0)+0,w
  4908  01B7  0835               	movwf	(___fldiv@b+3)
  4909  01B8  00B1               	movf	2+(??___fldiv+0)+0,w
  4910  01B9  0834               	movwf	(___fldiv@b+2)
  4911  01BA  00B0               	movf	1+(??___fldiv+0)+0,w
  4912  01BB  0833               	movwf	(___fldiv@b+1)
  4913  01BC  00AF               	movf	0+(??___fldiv+0)+0,w
  4914  01BD  0832               	movwf	(___fldiv@b)
  4915  01BE  00AE               
  4916                           	line	154
  4917                           	
  4918                           l2276:	
  4919  01BF                     	movlw	01h
  4920  01BF  3001               	addwf	(___fldiv@new_exp),f
  4921  01C0  07BC               	skipnc
  4922  01C1  1803               	incf	(___fldiv@new_exp+1),f
  4923  01C2  0ABD               	movlw	0
  4924  01C3  3000               	addwf	(___fldiv@new_exp+1),f
  4925  01C4  07BD               	goto	l2278
  4926  01C5  29C7               	line	155
  4927                           	
  4928                           l838:	
  4929  01C6                     	goto	l2278
  4930  01C6  29C7               	line	156
  4931                           	
  4932                           l837:	
  4933  01C7                     	line	159
  4934                           	
  4935                           l2278:	
  4936  01C7                     	movf	(___fldiv@new_exp+1),w
  4937  01C7  083D               	xorlw	80h
  4938  01C8  3A80               	movwf	btemp+1
  4939  01C9  00FF               	movlw	(0)^80h
  4940  01CA  3080               	subwf	btemp+1,w
  4941  01CB  027F               	skipz
  4942  01CC  1D03               	goto	u1955
  4943  01CD  29D0               	movlw	0FFh
  4944  01CE  30FF               	subwf	(___fldiv@new_exp),w
  4945  01CF  023C               u1955:
  4946  01D0                     
  4947                           	skipc
  4948  01D0  1C03               	goto	u1951
  4949  01D1  29D3               	goto	u1950
  4950  01D2  29D4               u1951:
  4951  01D3                     	goto	l2282
  4952  01D3  29E3               u1950:
  4953  01D4                     	line	160
  4954                           	
  4955                           l2280:	
  4956  01D4                     	movlw	0FFh
  4957  01D4  30FF               	bcf	status, 5	;RP0=0, select bank0
  4958  01D5  1283               	bcf	status, 6	;RP1=0, select bank0
  4959  01D6  1303               	movwf	(___fldiv@new_exp)
  4960  01D7  00BC               	movlw	0
  4961  01D8  3000               	movwf	((___fldiv@new_exp))+1
  4962  01D9  00BD               	line	161
  4963                           	movlw	high highword(0)
  4964  01DA  3000               	movwf	(___fldiv@b+3)
  4965  01DB  00B1               	movlw	low highword(0)
  4966  01DC  3000               	movwf	(___fldiv@b+2)
  4967  01DD  00B0               	movlw	high(0)
  4968  01DE  3000               	movwf	(___fldiv@b+1)
  4969  01DF  00AF               	movlw	low(0)
  4970  01E0  3000               	movwf	(___fldiv@b)
  4971  01E1  00AE               
  4972                           	goto	l2282
  4973  01E2  29E3               	line	162
  4974                           	
  4975                           l839:	
  4976  01E3                     	line	165
  4977                           	
  4978                           l2282:	
  4979  01E3                     	bcf	status, 5	;RP0=0, select bank0
  4980  01E3  1283               	bcf	status, 6	;RP1=0, select bank0
  4981  01E4  1303               	movf	(___fldiv@new_exp+1),w
  4982  01E5  083D               	xorlw	80h
  4983  01E6  3A80               	movwf	btemp+1
  4984  01E7  00FF               	movlw	(0)^80h
  4985  01E8  3080               	subwf	btemp+1,w
  4986  01E9  027F               	skipz
  4987  01EA  1D03               	goto	u1965
  4988  01EB  29EE               	movlw	01h
  4989  01EC  3001               	subwf	(___fldiv@new_exp),w
  4990  01ED  023C               u1965:
  4991  01EE                     
  4992                           	skipnc
  4993  01EE  1803               	goto	u1961
  4994  01EF  29F1               	goto	u1960
  4995  01F0  29F2               u1961:
  4996  01F1                     	goto	l840
  4997  01F1  29FF               u1960:
  4998  01F2                     	line	166
  4999                           	
  5000                           l2284:	
  5001  01F2                     	bcf	status, 5	;RP0=0, select bank0
  5002  01F2  1283               	bcf	status, 6	;RP1=0, select bank0
  5003  01F3  1303               	clrf	(___fldiv@new_exp)
  5004  01F4  01BC               	clrf	(___fldiv@new_exp+1)
  5005  01F5  01BD               	line	167
  5006                           	
  5007                           l2286:	
  5008  01F6                     	movlw	high highword(0)
  5009  01F6  3000               	movwf	(___fldiv@b+3)
  5010  01F7  00B1               	movlw	low highword(0)
  5011  01F8  3000               	movwf	(___fldiv@b+2)
  5012  01F9  00B0               	movlw	high(0)
  5013  01FA  3000               	movwf	(___fldiv@b+1)
  5014  01FB  00AF               	movlw	low(0)
  5015  01FC  3000               	movwf	(___fldiv@b)
  5016  01FD  00AE               
  5017                           	line	169
  5018                           	
  5019                           l2288:	
  5020  01FE                     	clrf	(___fldiv@sign)
  5021  01FE  01BB               	line	170
  5022                           	
  5023                           l840:	
  5024  01FF                     	line	173
  5025                           	bcf	status, 5	;RP0=0, select bank0
  5026  01FF  1283               	bcf	status, 6	;RP1=0, select bank0
  5027  0200  1303               	movf	(___fldiv@new_exp),w
  5028  0201  083C               	movwf	(??___fldiv+0)+0
  5029  0202  00B2               	movf	(??___fldiv+0)+0,w
  5030  0203  0832               	movwf	(___fldiv@bexp)
  5031  0204  00C2               	line	175
  5032                           	
  5033                           l2290:	
  5034  0205                     	btfss	(___fldiv@bexp),(0)&7
  5035  0205  1C42               	goto	u1971
  5036  0206  2A08               	goto	u1970
  5037  0207  2A09               u1971:
  5038  0208                     	goto	l2294
  5039  0208  2A0B               u1970:
  5040  0209                     	line	176
  5041                           	
  5042                           l2292:	
  5043  0209                     	bsf	0+(___fldiv@b)+02h+(7/8),(7)&7
  5044  0209  17B0               	line	177
  5045                           	goto	l842
  5046  020A  2A0F               	line	179
  5047                           	
  5048                           l841:	
  5049  020B                     	line	180
  5050                           	
  5051                           l2294:	
  5052  020B                     	movlw	low(07Fh)
  5053  020B  307F               	movwf	(??___fldiv+0)+0
  5054  020C  00B2               	movf	(??___fldiv+0)+0,w
  5055  020D  0832               	andwf	0+(___fldiv@b)+02h,f
  5056  020E  05B0               	line	181
  5057                           	
  5058                           l842:	
  5059  020F                     	line	182
  5060                           	movf	(___fldiv@bexp),w
  5061  020F  0842               	movwf	(??___fldiv+0)+0
  5062  0210  00B2               	clrc
  5063  0211  1003               	rrf	(??___fldiv+0)+0,w
  5064  0212  0C32               	movwf	(??___fldiv+1)+0
  5065  0213  00B3               	movf	(??___fldiv+1)+0,w
  5066  0214  0833               	movwf	0+(___fldiv@b)+03h
  5067  0215  00B1               	line	183
  5068                           	movf	(___fldiv@sign),w
  5069  0216  083B               	movwf	(??___fldiv+0)+0
  5070  0217  00B2               	movf	(??___fldiv+0)+0,w
  5071  0218  0832               	iorwf	0+(___fldiv@b)+03h,f
  5072  0219  04B1               	line	184
  5073                           	
  5074                           l2296:	
  5075  021A                     	movf	(___fldiv@b+3),w
  5076  021A  0831               	movwf	(?___fldiv+3)
  5077  021B  00AD               	movf	(___fldiv@b+2),w
  5078  021C  0830               	movwf	(?___fldiv+2)
  5079  021D  00AC               	movf	(___fldiv@b+1),w
  5080  021E  082F               	movwf	(?___fldiv+1)
  5081  021F  00AB               	movf	(___fldiv@b),w
  5082  0220  082E               	movwf	(?___fldiv)
  5083  0221  00AA               
  5084                           	goto	l820
  5085  0222  2A23               	
  5086                           l2298:	
  5087  0223                     	line	185
  5088                           	
  5089                           l820:	
  5090  0223                     	return
  5091  0223  0008               	opt stack 0
  5092                           GLOBAL	__end_of___fldiv
  5093                           	__end_of___fldiv:
  5094  0224                     	signat	___fldiv,8316
  5095                           	global	___awmod
  5096                           
  5097 ;; *************** function ___awmod *****************
  5098 ;; Defined at:
  5099 ;;		line 5 in file "C:\Program Files (x86)\Microchip\xc8\v2.00\pic\sources\c90\common\awmod.c"
  5100 ;; Parameters:    Size  Location     Type
  5101 ;;  divisor         2    3[COMMON] int 
  5102 ;;  dividend        2    5[COMMON] int 
  5103 ;; Auto vars:     Size  Location     Type
  5104 ;;  sign            1    1[BANK0 ] unsigned char 
  5105 ;;  counter         1    0[BANK0 ] unsigned char 
  5106 ;; Return value:  Size  Location     Type
  5107 ;;                  2    3[COMMON] int 
  5108 ;; Registers used:
  5109 ;;		wreg, status,2, status,0
  5110 ;; Tracked objects:
  5111 ;;		On entry : 0/0
  5112 ;;		On exit  : 0/0
  5113 ;;		Unchanged: 0/0
  5114 ;; Data sizes:     COMMON   BANK0   BANK1   BANK3   BANK2
  5115 ;;      Params:         4       0       0       0       0
  5116 ;;      Locals:         0       2       0       0       0
  5117 ;;      Temps:          1       0       0       0       0
  5118 ;;      Totals:         5       2       0       0       0
  5119 ;;Total ram usage:        7 bytes
  5120 ;; Hardware stack levels used:    1
  5121 ;; Hardware stack levels required when called:    1
  5122 ;; This function calls:
  5123 ;;		Nothing
  5124 ;; This function is called by:
  5125 ;;		_main
  5126 ;; This function uses a non-reentrant model
  5127 ;;
  5128                           psect	text7,local,class=CODE,delta=2,merge=1,group=1
  5129                           	file	"C:\Program Files (x86)\Microchip\xc8\v2.00\pic\sources\c90\common\awmod.c"
  5130                           	line	5
  5131                           global __ptext7
  5132                           __ptext7:	;psect for function ___awmod
  5133  066D                     psect	text7
  5134                           	file	"C:\Program Files (x86)\Microchip\xc8\v2.00\pic\sources\c90\common\awmod.c"
  5135                           	line	5
  5136                           	global	__size_of___awmod
  5137                           	__size_of___awmod	equ	__end_of___awmod-___awmod
  5138  0065                     	
  5139                           ___awmod:	
  5140  066D                     ;incstack = 0
  5141                           	opt	stack 6
  5142                           ; Regs used in ___awmod: [wreg+status,2+status,0]
  5143                           	line	12
  5144                           	
  5145                           l2612:	
  5146  066D                     	bcf	status, 5	;RP0=0, select bank0
  5147  066D  1283               	bcf	status, 6	;RP1=0, select bank0
  5148  066E  1303               	clrf	(___awmod@sign)
  5149  066F  01A1               	line	13
  5150                           	
  5151                           l2614:	
  5152  0670                     	btfss	(___awmod@dividend+1),7
  5153  0670  1FF6               	goto	u2301
  5154  0671  2E73               	goto	u2300
  5155  0672  2E74               u2301:
  5156  0673                     	goto	l2620
  5157  0673  2E7C               u2300:
  5158  0674                     	line	14
  5159                           	
  5160                           l2616:	
  5161  0674                     	comf	(___awmod@dividend),f
  5162  0674  09F5               	comf	(___awmod@dividend+1),f
  5163  0675  09F6               	incf	(___awmod@dividend),f
  5164  0676  0AF5               	skipnz
  5165  0677  1903               	incf	(___awmod@dividend+1),f
  5166  0678  0AF6               	line	15
  5167                           	
  5168                           l2618:	
  5169  0679                     	clrf	(___awmod@sign)
  5170  0679  01A1               	incf	(___awmod@sign),f
  5171  067A  0AA1               	goto	l2620
  5172  067B  2E7C               	line	16
  5173                           	
  5174                           l625:	
  5175  067C                     	line	17
  5176                           	
  5177                           l2620:	
  5178  067C                     	btfss	(___awmod@divisor+1),7
  5179  067C  1FF4               	goto	u2311
  5180  067D  2E7F               	goto	u2310
  5181  067E  2E80               u2311:
  5182  067F                     	goto	l2624
  5183  067F  2E86               u2310:
  5184  0680                     	line	18
  5185                           	
  5186                           l2622:	
  5187  0680                     	comf	(___awmod@divisor),f
  5188  0680  09F3               	comf	(___awmod@divisor+1),f
  5189  0681  09F4               	incf	(___awmod@divisor),f
  5190  0682  0AF3               	skipnz
  5191  0683  1903               	incf	(___awmod@divisor+1),f
  5192  0684  0AF4               	goto	l2624
  5193  0685  2E86               	
  5194                           l626:	
  5195  0686                     	line	19
  5196                           	
  5197                           l2624:	
  5198  0686                     	movf	((___awmod@divisor)),w
  5199  0686  0873               iorwf	((___awmod@divisor+1)),w
  5200  0687  0474               	btfsc	status,2
  5201  0688  1903               	goto	u2321
  5202  0689  2E8B               	goto	u2320
  5203  068A  2E8C               u2321:
  5204  068B                     	goto	l2642
  5205  068B  2EC1               u2320:
  5206  068C                     	line	20
  5207                           	
  5208                           l2626:	
  5209  068C                     	clrf	(___awmod@counter)
  5210  068C  01A0               	incf	(___awmod@counter),f
  5211  068D  0AA0               	line	21
  5212                           	goto	l2632
  5213  068E  2E9B               	
  5214                           l629:	
  5215  068F                     	line	22
  5216                           	
  5217                           l2628:	
  5218  068F                     	movlw	01h
  5219  068F  3001               	
  5220                           u2335:
  5221  0690                     	clrc
  5222  0690  1003               	rlf	(___awmod@divisor),f
  5223  0691  0DF3               	rlf	(___awmod@divisor+1),f
  5224  0692  0DF4               	addlw	-1
  5225  0693  3EFF               	skipz
  5226  0694  1D03               	goto	u2335
  5227  0695  2E90               	line	23
  5228                           	
  5229                           l2630:	
  5230  0696                     	movlw	low(01h)
  5231  0696  3001               	movwf	(??___awmod+0)+0
  5232  0697  00F7               	movf	(??___awmod+0)+0,w
  5233  0698  0877               	addwf	(___awmod@counter),f
  5234  0699  07A0               	goto	l2632
  5235  069A  2E9B               	line	24
  5236                           	
  5237                           l628:	
  5238  069B                     	line	21
  5239                           	
  5240                           l2632:	
  5241  069B                     	btfss	(___awmod@divisor+1),(15)&7
  5242  069B  1FF4               	goto	u2341
  5243  069C  2E9E               	goto	u2340
  5244  069D  2E9F               u2341:
  5245  069E                     	goto	l2628
  5246  069E  2E8F               u2340:
  5247  069F                     	goto	l2634
  5248  069F  2EA1               	
  5249                           l630:	
  5250  06A0                     	goto	l2634
  5251  06A0  2EA1               	line	25
  5252                           	
  5253                           l631:	
  5254  06A1                     	line	26
  5255                           	
  5256                           l2634:	
  5257  06A1                     	movf	(___awmod@divisor+1),w
  5258  06A1  0874               	subwf	(___awmod@dividend+1),w
  5259  06A2  0276               	skipz
  5260  06A3  1D03               	goto	u2355
  5261  06A4  2EA7               	movf	(___awmod@divisor),w
  5262  06A5  0873               	subwf	(___awmod@dividend),w
  5263  06A6  0275               u2355:
  5264  06A7                     	skipc
  5265  06A7  1C03               	goto	u2351
  5266  06A8  2EAA               	goto	u2350
  5267  06A9  2EAB               u2351:
  5268  06AA                     	goto	l2638
  5269  06AA  2EB2               u2350:
  5270  06AB                     	line	27
  5271                           	
  5272                           l2636:	
  5273  06AB                     	movf	(___awmod@divisor),w
  5274  06AB  0873               	subwf	(___awmod@dividend),f
  5275  06AC  02F5               	movf	(___awmod@divisor+1),w
  5276  06AD  0874               	skipc
  5277  06AE  1C03               	decf	(___awmod@dividend+1),f
  5278  06AF  03F6               	subwf	(___awmod@dividend+1),f
  5279  06B0  02F6               	goto	l2638
  5280  06B1  2EB2               	
  5281                           l632:	
  5282  06B2                     	line	28
  5283                           	
  5284                           l2638:	
  5285  06B2                     	movlw	01h
  5286  06B2  3001               	
  5287                           u2365:
  5288  06B3                     	clrc
  5289  06B3  1003               	rrf	(___awmod@divisor+1),f
  5290  06B4  0CF4               	rrf	(___awmod@divisor),f
  5291  06B5  0CF3               	addlw	-1
  5292  06B6  3EFF               	skipz
  5293  06B7  1D03               	goto	u2365
  5294  06B8  2EB3               	line	29
  5295                           	
  5296                           l2640:	
  5297  06B9                     	movlw	01h
  5298  06B9  3001               	subwf	(___awmod@counter),f
  5299  06BA  02A0               	btfss	status,2
  5300  06BB  1D03               	goto	u2371
  5301  06BC  2EBE               	goto	u2370
  5302  06BD  2EBF               u2371:
  5303  06BE                     	goto	l2634
  5304  06BE  2EA1               u2370:
  5305  06BF                     	goto	l2642
  5306  06BF  2EC1               	
  5307                           l633:	
  5308  06C0                     	goto	l2642
  5309  06C0  2EC1               	line	30
  5310                           	
  5311                           l627:	
  5312  06C1                     	line	31
  5313                           	
  5314                           l2642:	
  5315  06C1                     	movf	((___awmod@sign)),w
  5316  06C1  0821               	btfsc	status,2
  5317  06C2  1903               	goto	u2381
  5318  06C3  2EC5               	goto	u2380
  5319  06C4  2EC6               u2381:
  5320  06C5                     	goto	l2646
  5321  06C5  2ECC               u2380:
  5322  06C6                     	line	32
  5323                           	
  5324                           l2644:	
  5325  06C6                     	comf	(___awmod@dividend),f
  5326  06C6  09F5               	comf	(___awmod@dividend+1),f
  5327  06C7  09F6               	incf	(___awmod@dividend),f
  5328  06C8  0AF5               	skipnz
  5329  06C9  1903               	incf	(___awmod@dividend+1),f
  5330  06CA  0AF6               	goto	l2646
  5331  06CB  2ECC               	
  5332                           l634:	
  5333  06CC                     	line	33
  5334                           	
  5335                           l2646:	
  5336  06CC                     	movf	(___awmod@dividend+1),w
  5337  06CC  0876               	movwf	(?___awmod+1)
  5338  06CD  00F4               	movf	(___awmod@dividend),w
  5339  06CE  0875               	movwf	(?___awmod)
  5340  06CF  00F3               	goto	l635
  5341  06D0  2ED1               	
  5342                           l2648:	
  5343  06D1                     	line	34
  5344                           	
  5345                           l635:	
  5346  06D1                     	return
  5347  06D1  0008               	opt stack 0
  5348                           GLOBAL	__end_of___awmod
  5349                           	__end_of___awmod:
  5350  06D2                     	signat	___awmod,8314
  5351                           	global	___awdiv
  5352                           
  5353 ;; *************** function ___awdiv *****************
  5354 ;; Defined at:
  5355 ;;		line 5 in file "C:\Program Files (x86)\Microchip\xc8\v2.00\pic\sources\c90\common\awdiv.c"
  5356 ;; Parameters:    Size  Location     Type
  5357 ;;  divisor         2    3[COMMON] int 
  5358 ;;  dividend        2    5[COMMON] int 
  5359 ;; Auto vars:     Size  Location     Type
  5360 ;;  quotient        2    2[BANK0 ] int 
  5361 ;;  sign            1    1[BANK0 ] unsigned char 
  5362 ;;  counter         1    0[BANK0 ] unsigned char 
  5363 ;; Return value:  Size  Location     Type
  5364 ;;                  2    3[COMMON] int 
  5365 ;; Registers used:
  5366 ;;		wreg, status,2, status,0
  5367 ;; Tracked objects:
  5368 ;;		On entry : 0/0
  5369 ;;		On exit  : 0/0
  5370 ;;		Unchanged: 0/0
  5371 ;; Data sizes:     COMMON   BANK0   BANK1   BANK3   BANK2
  5372 ;;      Params:         4       0       0       0       0
  5373 ;;      Locals:         0       4       0       0       0
  5374 ;;      Temps:          1       0       0       0       0
  5375 ;;      Totals:         5       4       0       0       0
  5376 ;;Total ram usage:        9 bytes
  5377 ;; Hardware stack levels used:    1
  5378 ;; Hardware stack levels required when called:    1
  5379 ;; This function calls:
  5380 ;;		Nothing
  5381 ;; This function is called by:
  5382 ;;		_main
  5383 ;; This function uses a non-reentrant model
  5384 ;;
  5385                           psect	text8,local,class=CODE,delta=2,merge=1,group=1
  5386                           	file	"C:\Program Files (x86)\Microchip\xc8\v2.00\pic\sources\c90\common\awdiv.c"
  5387                           	line	5
  5388                           global __ptext8
  5389                           __ptext8:	;psect for function ___awdiv
  5390  05FA                     psect	text8
  5391                           	file	"C:\Program Files (x86)\Microchip\xc8\v2.00\pic\sources\c90\common\awdiv.c"
  5392                           	line	5
  5393                           	global	__size_of___awdiv
  5394                           	__size_of___awdiv	equ	__end_of___awdiv-___awdiv
  5395  0073                     	
  5396                           ___awdiv:	
  5397  05FA                     ;incstack = 0
  5398                           	opt	stack 6
  5399                           ; Regs used in ___awdiv: [wreg+status,2+status,0]
  5400                           	line	13
  5401                           	
  5402                           l2040:	
  5403  05FA                     	bcf	status, 5	;RP0=0, select bank0
  5404  05FA  1283               	bcf	status, 6	;RP1=0, select bank0
  5405  05FB  1303               	clrf	(___awdiv@sign)
  5406  05FC  01A1               	line	14
  5407                           	
  5408                           l2042:	
  5409  05FD                     	btfss	(___awdiv@divisor+1),7
  5410  05FD  1FF4               	goto	u1401
  5411  05FE  2E00               	goto	u1400
  5412  05FF  2E01               u1401:
  5413  0600                     	goto	l2048
  5414  0600  2E09               u1400:
  5415  0601                     	line	15
  5416                           	
  5417                           l2044:	
  5418  0601                     	comf	(___awdiv@divisor),f
  5419  0601  09F3               	comf	(___awdiv@divisor+1),f
  5420  0602  09F4               	incf	(___awdiv@divisor),f
  5421  0603  0AF3               	skipnz
  5422  0604  1903               	incf	(___awdiv@divisor+1),f
  5423  0605  0AF4               	line	16
  5424                           	
  5425                           l2046:	
  5426  0606                     	clrf	(___awdiv@sign)
  5427  0606  01A1               	incf	(___awdiv@sign),f
  5428  0607  0AA1               	goto	l2048
  5429  0608  2E09               	line	17
  5430                           	
  5431                           l612:	
  5432  0609                     	line	18
  5433                           	
  5434                           l2048:	
  5435  0609                     	btfss	(___awdiv@dividend+1),7
  5436  0609  1FF6               	goto	u1411
  5437  060A  2E0C               	goto	u1410
  5438  060B  2E0D               u1411:
  5439  060C                     	goto	l2054
  5440  060C  2E17               u1410:
  5441  060D                     	line	19
  5442                           	
  5443                           l2050:	
  5444  060D                     	comf	(___awdiv@dividend),f
  5445  060D  09F5               	comf	(___awdiv@dividend+1),f
  5446  060E  09F6               	incf	(___awdiv@dividend),f
  5447  060F  0AF5               	skipnz
  5448  0610  1903               	incf	(___awdiv@dividend+1),f
  5449  0611  0AF6               	line	20
  5450                           	
  5451                           l2052:	
  5452  0612                     	movlw	low(01h)
  5453  0612  3001               	movwf	(??___awdiv+0)+0
  5454  0613  00F7               	movf	(??___awdiv+0)+0,w
  5455  0614  0877               	xorwf	(___awdiv@sign),f
  5456  0615  06A1               	goto	l2054
  5457  0616  2E17               	line	21
  5458                           	
  5459                           l613:	
  5460  0617                     	line	22
  5461                           	
  5462                           l2054:	
  5463  0617                     	clrf	(___awdiv@quotient)
  5464  0617  01A2               	clrf	(___awdiv@quotient+1)
  5465  0618  01A3               	line	23
  5466                           	
  5467                           l2056:	
  5468  0619                     	movf	((___awdiv@divisor)),w
  5469  0619  0873               iorwf	((___awdiv@divisor+1)),w
  5470  061A  0474               	btfsc	status,2
  5471  061B  1903               	goto	u1421
  5472  061C  2E1E               	goto	u1420
  5473  061D  2E1F               u1421:
  5474  061E                     	goto	l2076
  5475  061E  2E5C               u1420:
  5476  061F                     	line	24
  5477                           	
  5478                           l2058:	
  5479  061F                     	clrf	(___awdiv@counter)
  5480  061F  01A0               	incf	(___awdiv@counter),f
  5481  0620  0AA0               	line	25
  5482                           	goto	l2064
  5483  0621  2E2E               	
  5484                           l616:	
  5485  0622                     	line	26
  5486                           	
  5487                           l2060:	
  5488  0622                     	movlw	01h
  5489  0622  3001               	
  5490                           u1435:
  5491  0623                     	clrc
  5492  0623  1003               	rlf	(___awdiv@divisor),f
  5493  0624  0DF3               	rlf	(___awdiv@divisor+1),f
  5494  0625  0DF4               	addlw	-1
  5495  0626  3EFF               	skipz
  5496  0627  1D03               	goto	u1435
  5497  0628  2E23               	line	27
  5498                           	
  5499                           l2062:	
  5500  0629                     	movlw	low(01h)
  5501  0629  3001               	movwf	(??___awdiv+0)+0
  5502  062A  00F7               	movf	(??___awdiv+0)+0,w
  5503  062B  0877               	addwf	(___awdiv@counter),f
  5504  062C  07A0               	goto	l2064
  5505  062D  2E2E               	line	28
  5506                           	
  5507                           l615:	
  5508  062E                     	line	25
  5509                           	
  5510                           l2064:	
  5511  062E                     	btfss	(___awdiv@divisor+1),(15)&7
  5512  062E  1FF4               	goto	u1441
  5513  062F  2E31               	goto	u1440
  5514  0630  2E32               u1441:
  5515  0631                     	goto	l2060
  5516  0631  2E22               u1440:
  5517  0632                     	goto	l2066
  5518  0632  2E34               	
  5519                           l617:	
  5520  0633                     	goto	l2066
  5521  0633  2E34               	line	29
  5522                           	
  5523                           l618:	
  5524  0634                     	line	30
  5525                           	
  5526                           l2066:	
  5527  0634                     	movlw	01h
  5528  0634  3001               	
  5529                           u1455:
  5530  0635                     	clrc
  5531  0635  1003               	rlf	(___awdiv@quotient),f
  5532  0636  0DA2               	rlf	(___awdiv@quotient+1),f
  5533  0637  0DA3               	addlw	-1
  5534  0638  3EFF               	skipz
  5535  0639  1D03               	goto	u1455
  5536  063A  2E35               	line	31
  5537                           	movf	(___awdiv@divisor+1),w
  5538  063B  0874               	subwf	(___awdiv@dividend+1),w
  5539  063C  0276               	skipz
  5540  063D  1D03               	goto	u1465
  5541  063E  2E41               	movf	(___awdiv@divisor),w
  5542  063F  0873               	subwf	(___awdiv@dividend),w
  5543  0640  0275               u1465:
  5544  0641                     	skipc
  5545  0641  1C03               	goto	u1461
  5546  0642  2E44               	goto	u1460
  5547  0643  2E45               u1461:
  5548  0644                     	goto	l2072
  5549  0644  2E4D               u1460:
  5550  0645                     	line	32
  5551                           	
  5552                           l2068:	
  5553  0645                     	movf	(___awdiv@divisor),w
  5554  0645  0873               	subwf	(___awdiv@dividend),f
  5555  0646  02F5               	movf	(___awdiv@divisor+1),w
  5556  0647  0874               	skipc
  5557  0648  1C03               	decf	(___awdiv@dividend+1),f
  5558  0649  03F6               	subwf	(___awdiv@dividend+1),f
  5559  064A  02F6               	line	33
  5560                           	
  5561                           l2070:	
  5562  064B                     	bsf	(___awdiv@quotient)+(0/8),(0)&7
  5563  064B  1422               	goto	l2072
  5564  064C  2E4D               	line	34
  5565                           	
  5566                           l619:	
  5567  064D                     	line	35
  5568                           	
  5569                           l2072:	
  5570  064D                     	movlw	01h
  5571  064D  3001               	
  5572                           u1475:
  5573  064E                     	clrc
  5574  064E  1003               	rrf	(___awdiv@divisor+1),f
  5575  064F  0CF4               	rrf	(___awdiv@divisor),f
  5576  0650  0CF3               	addlw	-1
  5577  0651  3EFF               	skipz
  5578  0652  1D03               	goto	u1475
  5579  0653  2E4E               	line	36
  5580                           	
  5581                           l2074:	
  5582  0654                     	movlw	01h
  5583  0654  3001               	subwf	(___awdiv@counter),f
  5584  0655  02A0               	btfss	status,2
  5585  0656  1D03               	goto	u1481
  5586  0657  2E59               	goto	u1480
  5587  0658  2E5A               u1481:
  5588  0659                     	goto	l2066
  5589  0659  2E34               u1480:
  5590  065A                     	goto	l2076
  5591  065A  2E5C               	
  5592                           l620:	
  5593  065B                     	goto	l2076
  5594  065B  2E5C               	line	37
  5595                           	
  5596                           l614:	
  5597  065C                     	line	38
  5598                           	
  5599                           l2076:	
  5600  065C                     	movf	((___awdiv@sign)),w
  5601  065C  0821               	btfsc	status,2
  5602  065D  1903               	goto	u1491
  5603  065E  2E60               	goto	u1490
  5604  065F  2E61               u1491:
  5605  0660                     	goto	l2080
  5606  0660  2E67               u1490:
  5607  0661                     	line	39
  5608                           	
  5609                           l2078:	
  5610  0661                     	comf	(___awdiv@quotient),f
  5611  0661  09A2               	comf	(___awdiv@quotient+1),f
  5612  0662  09A3               	incf	(___awdiv@quotient),f
  5613  0663  0AA2               	skipnz
  5614  0664  1903               	incf	(___awdiv@quotient+1),f
  5615  0665  0AA3               	goto	l2080
  5616  0666  2E67               	
  5617                           l621:	
  5618  0667                     	line	40
  5619                           	
  5620                           l2080:	
  5621  0667                     	movf	(___awdiv@quotient+1),w
  5622  0667  0823               	movwf	(?___awdiv+1)
  5623  0668  00F4               	movf	(___awdiv@quotient),w
  5624  0669  0822               	movwf	(?___awdiv)
  5625  066A  00F3               	goto	l622
  5626  066B  2E6C               	
  5627                           l2082:	
  5628  066C                     	line	41
  5629                           	
  5630                           l622:	
  5631  066C                     	return
  5632  066C  0008               	opt stack 0
  5633                           GLOBAL	__end_of___awdiv
  5634                           	__end_of___awdiv:
  5635  066D                     	signat	___awdiv,8314
  5636                           	global	_PWMconf
  5637                           
  5638 ;; *************** function _PWMconf *****************
  5639 ;; Defined at:
  5640 ;;		line 176 in file "mainS1proyect.c"
  5641 ;; Parameters:    Size  Location     Type
  5642 ;;		None
  5643 ;; Auto vars:     Size  Location     Type
  5644 ;;		None
  5645 ;; Return value:  Size  Location     Type
  5646 ;;                  1    wreg      void 
  5647 ;; Registers used:
  5648 ;;		wreg
  5649 ;; Tracked objects:
  5650 ;;		On entry : 0/0
  5651 ;;		On exit  : 0/0
  5652 ;;		Unchanged: 0/0
  5653 ;; Data sizes:     COMMON   BANK0   BANK1   BANK3   BANK2
  5654 ;;      Params:         0       0       0       0       0
  5655 ;;      Locals:         0       0       0       0       0
  5656 ;;      Temps:          0       0       0       0       0
  5657 ;;      Totals:         0       0       0       0       0
  5658 ;;Total ram usage:        0 bytes
  5659 ;; Hardware stack levels used:    1
  5660 ;; Hardware stack levels required when called:    1
  5661 ;; This function calls:
  5662 ;;		Nothing
  5663 ;; This function is called by:
  5664 ;;		_main
  5665 ;; This function uses a non-reentrant model
  5666 ;;
  5667                           psect	text9,local,class=CODE,delta=2,merge=1,group=0
  5668                           	file	"mainS1proyect.c"
  5669                           	line	176
  5670                           global __ptext9
  5671                           __ptext9:	;psect for function _PWMconf
  5672  0FA5                     psect	text9
  5673                           	file	"mainS1proyect.c"
  5674                           	line	176
  5675                           	global	__size_of_PWMconf
  5676                           	__size_of_PWMconf	equ	__end_of_PWMconf-_PWMconf
  5677  001A                     	
  5678                           _PWMconf:	
  5679  0FA5                     ;incstack = 0
  5680                           	opt	stack 6
  5681                           ; Regs used in _PWMconf: [wreg]
  5682                           	line	178
  5683                           	
  5684                           l1954:	
  5685  0FA5                     ;mainS1proyect.c: 178:     TRISCbits.TRISC2 = 1;
  5686                           	bsf	status, 5	;RP0=1, select bank1
  5687  0FA5  1683               	bcf	status, 6	;RP1=0, select bank1
  5688  0FA6  1303               	bsf	(135)^080h,2	;volatile
  5689  0FA7  1507               	line	179
  5690                           	
  5691                           l1956:	
  5692  0FA8                     ;mainS1proyect.c: 179:     PR2 = 155;
  5693                           	movlw	low(09Bh)
  5694  0FA8  309B               	movwf	(146)^080h	;volatile
  5695  0FA9  0092               	line	180
  5696                           	
  5697                           l1958:	
  5698  0FAA                     ;mainS1proyect.c: 180:     CCP1CONbits.P1M1 = 0;
  5699                           	bcf	status, 5	;RP0=0, select bank0
  5700  0FAA  1283               	bcf	status, 6	;RP1=0, select bank0
  5701  0FAB  1303               	bcf	(23),7	;volatile
  5702  0FAC  1397               	line	181
  5703                           	
  5704                           l1960:	
  5705  0FAD                     ;mainS1proyect.c: 181:     CCP1CONbits.P1M0 = 0;
  5706                           	bcf	(23),6	;volatile
  5707  0FAD  1317               	line	183
  5708                           	
  5709                           l1962:	
  5710  0FAE                     ;mainS1proyect.c: 183:     CCP1CONbits.CCP1M0 = 0;
  5711                           	bcf	(23),0	;volatile
  5712  0FAE  1017               	line	184
  5713                           	
  5714                           l1964:	
  5715  0FAF                     ;mainS1proyect.c: 184:     CCP1CONbits.CCP1M1 = 0;
  5716                           	bcf	(23),1	;volatile
  5717  0FAF  1097               	line	185
  5718                           	
  5719                           l1966:	
  5720  0FB0                     ;mainS1proyect.c: 185:     CCP1CONbits.CCP1M2 = 1;
  5721                           	bsf	(23),2	;volatile
  5722  0FB0  1517               	line	186
  5723                           	
  5724                           l1968:	
  5725  0FB1                     ;mainS1proyect.c: 186:     CCP1CONbits.CCP1M3 = 1;
  5726                           	bsf	(23),3	;volatile
  5727  0FB1  1597               	line	188
  5728                           ;mainS1proyect.c: 188:     CCPR1L = 6;
  5729                           	movlw	low(06h)
  5730  0FB2  3006               	movwf	(21)	;volatile
  5731  0FB3  0095               	line	189
  5732                           	
  5733                           l1970:	
  5734  0FB4                     ;mainS1proyect.c: 189:     CCP1CONbits.DC1B0 = 1;
  5735                           	bsf	(23),4	;volatile
  5736  0FB4  1617               	line	190
  5737                           	
  5738                           l1972:	
  5739  0FB5                     ;mainS1proyect.c: 190:     CCP1CONbits.DC1B1 = 1;
  5740                           	bsf	(23),5	;volatile
  5741  0FB5  1697               	line	192
  5742                           	
  5743                           l1974:	
  5744  0FB6                     ;mainS1proyect.c: 192:     PIR1bits.TMR2IF = 0;
  5745                           	bcf	(12),1	;volatile
  5746  0FB6  108C               	line	195
  5747                           	
  5748                           l1976:	
  5749  0FB7                     ;mainS1proyect.c: 195:     T2CONbits.T2CKPS0 = 1;
  5750                           	bsf	(18),0	;volatile
  5751  0FB7  1412               	line	196
  5752                           	
  5753                           l1978:	
  5754  0FB8                     ;mainS1proyect.c: 196:     T2CONbits.T2CKPS1 = 1;
  5755                           	bsf	(18),1	;volatile
  5756  0FB8  1492               	line	198
  5757                           	
  5758                           l1980:	
  5759  0FB9                     ;mainS1proyect.c: 198:     T2CONbits.TMR2ON = 1;
  5760                           	bsf	(18),2	;volatile
  5761  0FB9  1512               	line	200
  5762                           	
  5763                           l1982:	
  5764  0FBA                     ;mainS1proyect.c: 200:     PIR1bits.TMR2IF = 0;
  5765                           	bcf	(12),1	;volatile
  5766  0FBA  108C               	line	202
  5767                           	
  5768                           l1984:	
  5769  0FBB                     ;mainS1proyect.c: 202:     TRISCbits.TRISC2 = 0;
  5770                           	bsf	status, 5	;RP0=1, select bank1
  5771  0FBB  1683               	bcf	status, 6	;RP1=0, select bank1
  5772  0FBC  1303               	bcf	(135)^080h,2	;volatile
  5773  0FBD  1107               	line	203
  5774                           	
  5775                           l116:	
  5776  0FBE                     	return
  5777  0FBE  0008               	opt stack 0
  5778                           GLOBAL	__end_of_PWMconf
  5779                           	__end_of_PWMconf:
  5780  0FBF                     	signat	_PWMconf,89
  5781                           	global	_Lcd_Write_String
  5782                           
  5783 ;; *************** function _Lcd_Write_String *****************
  5784 ;; Defined at:
  5785 ;;		line 127 in file "LCD.c"
  5786 ;; Parameters:    Size  Location     Type
  5787 ;;  a               1    wreg     PTR unsigned char 
  5788 ;;		 -> STR_5(13), STR_4(3), STR_3(12), STR_2(17), 
  5789 ;;		 -> STR_1(16), 
  5790 ;;  modo            2    3[BANK0 ] int 
  5791 ;; Auto vars:     Size  Location     Type
  5792 ;;  a               1    7[BANK0 ] PTR unsigned char 
  5793 ;;		 -> STR_5(13), STR_4(3), STR_3(12), STR_2(17), 
  5794 ;;		 -> STR_1(16), 
  5795 ;;  i               2    5[BANK0 ] int 
  5796 ;; Return value:  Size  Location     Type
  5797 ;;                  1    wreg      void 
  5798 ;; Registers used:
  5799 ;;		wreg, fsr0l, fsr0h, status,2, status,0, pclath, cstack
  5800 ;; Tracked objects:
  5801 ;;		On entry : 0/0
  5802 ;;		On exit  : 0/0
  5803 ;;		Unchanged: 0/0
  5804 ;; Data sizes:     COMMON   BANK0   BANK1   BANK3   BANK2
  5805 ;;      Params:         0       2       0       0       0
  5806 ;;      Locals:         0       3       0       0       0
  5807 ;;      Temps:          0       0       0       0       0
  5808 ;;      Totals:         0       5       0       0       0
  5809 ;;Total ram usage:        5 bytes
  5810 ;; Hardware stack levels used:    1
  5811 ;; Hardware stack levels required when called:    3
  5812 ;; This function calls:
  5813 ;;		_Lcd_Write_Char
  5814 ;; This function is called by:
  5815 ;;		_main
  5816 ;; This function uses a non-reentrant model
  5817 ;;
  5818                           psect	text10,local,class=CODE,delta=2,merge=1,group=0
  5819                           	file	"LCD.c"
  5820                           	line	127
  5821                           global __ptext10
  5822                           __ptext10:	;psect for function _Lcd_Write_String
  5823  07CC                     psect	text10
  5824                           	file	"LCD.c"
  5825                           	line	127
  5826                           	global	__size_of_Lcd_Write_String
  5827                           	__size_of_Lcd_Write_String	equ	__end_of_Lcd_Write_String-_Lcd_Write_String
  5828  002F                     	
  5829                           _Lcd_Write_String:	
  5830  07CC                     ;incstack = 0
  5831                           	opt	stack 4
  5832                           ; Regs used in _Lcd_Write_String: [wreg-fsr0h+status,2+status,0+pclath+cstack]
  5833                           ;Lcd_Write_String@a stored from wreg
  5834                           	bcf	status, 5	;RP0=0, select bank0
  5835  07CC  1283               	bcf	status, 6	;RP1=0, select bank0
  5836  07CD  1303               	movwf	(Lcd_Write_String@a)
  5837  07CE  00A7               	line	130
  5838                           	
  5839                           l2594:	
  5840  07CF                     ;LCD.c: 127: void Lcd_Write_String(char *a,int modo);LCD.c: 128: {;LCD.c: 129:  int i;;L
                                 CD.c: 130:  for(i=0;a[i]!='\0';i++)
  5841                           	clrf	(Lcd_Write_String@i)
  5842  07CF  01A5               	clrf	(Lcd_Write_String@i+1)
  5843  07D0  01A6               	goto	l2600
  5844  07D1  2FEC               	
  5845                           l231:	
  5846  07D2                     	line	131
  5847                           	
  5848                           l2596:	
  5849  07D2                     ;LCD.c: 131:     Lcd_Write_Char(a[i],modo);
  5850                           	movf	(Lcd_Write_String@modo+1),w
  5851  07D2  0824               	movwf	(Lcd_Write_Char@modo+1)
  5852  07D3  00F5               	movf	(Lcd_Write_String@modo),w
  5853  07D4  0823               	movwf	(Lcd_Write_Char@modo)
  5854  07D5  00F4               	movf	(Lcd_Write_String@i),w
  5855  07D6  0825               	addwf	(Lcd_Write_String@a),w
  5856  07D7  0727               	movwf	fsr0
  5857  07D8  0084               	fcall	stringdir
  5858  07D9  120A  158A  2000  120A  118A  	fcall	_Lcd_Write_Char
  5859  07DE  120A  118A  272F  120A  118A  	
  5860                           l2598:	
  5861  07E3                     	movlw	01h
  5862  07E3  3001               	bcf	status, 5	;RP0=0, select bank0
  5863  07E4  1283               	bcf	status, 6	;RP1=0, select bank0
  5864  07E5  1303               	addwf	(Lcd_Write_String@i),f
  5865  07E6  07A5               	skipnc
  5866  07E7  1803               	incf	(Lcd_Write_String@i+1),f
  5867  07E8  0AA6               	movlw	0
  5868  07E9  3000               	addwf	(Lcd_Write_String@i+1),f
  5869  07EA  07A6               	goto	l2600
  5870  07EB  2FEC               	
  5871                           l230:	
  5872  07EC                     	
  5873                           l2600:	
  5874  07EC                     	movf	(Lcd_Write_String@i),w
  5875  07EC  0825               	addwf	(Lcd_Write_String@a),w
  5876  07ED  0727               	movwf	fsr0
  5877  07EE  0084               	fcall	stringdir
  5878  07EF  120A  158A  2000  120A  118A  	xorlw	0
  5879  07F4  3A00               	skipz
  5880  07F5  1D03               	goto	u2291
  5881  07F6  2FF8               	goto	u2290
  5882  07F7  2FF9               u2291:
  5883  07F8                     	goto	l2596
  5884  07F8  2FD2               u2290:
  5885  07F9                     	goto	l233
  5886  07F9  2FFA               	
  5887                           l232:	
  5888  07FA                     	line	132
  5889                           	
  5890                           l233:	
  5891  07FA                     	return
  5892  07FA  0008               	opt stack 0
  5893                           GLOBAL	__end_of_Lcd_Write_String
  5894                           	__end_of_Lcd_Write_String:
  5895  07FB                     	signat	_Lcd_Write_String,8313
  5896                           	global	_Lcd_Write_Char
  5897                           
  5898 ;; *************** function _Lcd_Write_Char *****************
  5899 ;; Defined at:
  5900 ;;		line 98 in file "LCD.c"
  5901 ;; Parameters:    Size  Location     Type
  5902 ;;  a               1    wreg     unsigned char 
  5903 ;;  modo            2    4[COMMON] int 
  5904 ;; Auto vars:     Size  Location     Type
  5905 ;;  a               1    2[BANK0 ] unsigned char 
  5906 ;;  y               1    1[BANK0 ] unsigned char 
  5907 ;;  temp            1    0[BANK0 ] unsigned char 
  5908 ;; Return value:  Size  Location     Type
  5909 ;;                  1    wreg      void 
  5910 ;; Registers used:
  5911 ;;		wreg, status,2, status,0, pclath, cstack
  5912 ;; Tracked objects:
  5913 ;;		On entry : 0/0
  5914 ;;		On exit  : 0/0
  5915 ;;		Unchanged: 0/0
  5916 ;; Data sizes:     COMMON   BANK0   BANK1   BANK3   BANK2
  5917 ;;      Params:         2       0       0       0       0
  5918 ;;      Locals:         0       3       0       0       0
  5919 ;;      Temps:          1       0       0       0       0
  5920 ;;      Totals:         3       3       0       0       0
  5921 ;;Total ram usage:        6 bytes
  5922 ;; Hardware stack levels used:    1
  5923 ;; Hardware stack levels required when called:    2
  5924 ;; This function calls:
  5925 ;;		_Lcd_Port
  5926 ;; This function is called by:
  5927 ;;		_main
  5928 ;;		_Lcd_Write_String
  5929 ;; This function uses a non-reentrant model
  5930 ;;
  5931                           psect	text11,local,class=CODE,delta=2,merge=1,group=0
  5932                           	line	98
  5933                           global __ptext11
  5934                           __ptext11:	;psect for function _Lcd_Write_Char
  5935  072F                     psect	text11
  5936                           	file	"LCD.c"
  5937                           	line	98
  5938                           	global	__size_of_Lcd_Write_Char
  5939                           	__size_of_Lcd_Write_Char	equ	__end_of_Lcd_Write_Char-_Lcd_Write_Char
  5940  0052                     	
  5941                           _Lcd_Write_Char:	
  5942  072F                     ;incstack = 0
  5943                           	opt	stack 4
  5944                           ; Regs used in _Lcd_Write_Char: [wreg+status,2+status,0+pclath+cstack]
  5945                           ;Lcd_Write_Char@a stored from wreg
  5946                           	bcf	status, 5	;RP0=0, select bank0
  5947  072F  1283               	bcf	status, 6	;RP1=0, select bank0
  5948  0730  1303               	movwf	(Lcd_Write_Char@a)
  5949  0731  00A2               	line	100
  5950                           	
  5951                           l2562:	
  5952  0732                     ;LCD.c: 98: void Lcd_Write_Char(char a,int modo);LCD.c: 99: {;LCD.c: 100:     if(modo==4
                                 )
  5953                           		movlw	4
  5954  0732  3004               	xorwf	((Lcd_Write_Char@modo)),w
  5955  0733  0674               iorwf	((Lcd_Write_Char@modo+1)),w
  5956  0734  0475               	btfss	status,2
  5957  0735  1D03               	goto	u2261
  5958  0736  2F38               	goto	u2260
  5959  0737  2F39               u2261:
  5960  0738                     	goto	l2584
  5961  0738  2F6B               u2260:
  5962  0739                     	line	103
  5963                           	
  5964                           l2564:	
  5965  0739                     ;LCD.c: 101:     {;LCD.c: 102:    char temp,y;;LCD.c: 103:    temp = a&0x0F;
  5966                           	movf	(Lcd_Write_Char@a),w
  5967  0739  0822               	andlw	0Fh
  5968  073A  390F               	movwf	(??_Lcd_Write_Char+0)+0
  5969  073B  00F6               	movf	(??_Lcd_Write_Char+0)+0,w
  5970  073C  0876               	movwf	(Lcd_Write_Char@temp)
  5971  073D  00A0               	line	104
  5972                           ;LCD.c: 104:    y = a&0xF0;
  5973                           	movf	(Lcd_Write_Char@a),w
  5974  073E  0822               	andlw	0F0h
  5975  073F  39F0               	movwf	(??_Lcd_Write_Char+0)+0
  5976  0740  00F6               	movf	(??_Lcd_Write_Char+0)+0,w
  5977  0741  0876               	movwf	(Lcd_Write_Char@y)
  5978  0742  00A1               	line	105
  5979                           	
  5980                           l2566:	
  5981  0743                     ;LCD.c: 105:    PORTEbits.RE0 = 1;
  5982                           	bsf	(9),0	;volatile
  5983  0743  1409               	line	106
  5984                           	
  5985                           l2568:	
  5986  0744                     ;LCD.c: 106:    Lcd_Port(y>>4);
  5987                           	movf	(Lcd_Write_Char@y),w
  5988  0744  0821               	movwf	(??_Lcd_Write_Char+0)+0
  5989  0745  00F6               	movlw	04h
  5990  0746  3004               u2275:
  5991  0747                     	clrc
  5992  0747  1003               	rrf	(??_Lcd_Write_Char+0)+0,f
  5993  0748  0CF6               	addlw	-1
  5994  0749  3EFF               	skipz
  5995  074A  1D03               	goto	u2275
  5996  074B  2F47               	movf	0+(??_Lcd_Write_Char+0)+0,w
  5997  074C  0876               	fcall	_Lcd_Port
  5998  074D  120A  158A  27DD  120A  118A  	line	107
  5999                           	
  6000                           l2570:	
  6001  0752                     ;LCD.c: 107:    PORTEbits.RE1 = 1;
  6002                           	bcf	status, 5	;RP0=0, select bank0
  6003  0752  1283               	bcf	status, 6	;RP1=0, select bank0
  6004  0753  1303               	bsf	(9),1	;volatile
  6005  0754  1489               	line	108
  6006                           	
  6007                           l2572:	
  6008  0755                     ;LCD.c: 108:    _delay((unsigned long)((40)*(500000/4000000.0)));
  6009                           		opt asmopt_push
  6010                           	opt asmopt_off
  6011                           	nop2	;2 cycle nop
  6012  0755  2F56               	nop2	;2 cycle nop
  6013  0756  2F57               	nop
  6014  0757  0000               	opt asmopt_pop
  6015                           
  6016                           	line	109
  6017                           	
  6018                           l2574:	
  6019  0758                     ;LCD.c: 109:    PORTEbits.RE1 = 0;
  6020                           	bcf	status, 5	;RP0=0, select bank0
  6021  0758  1283               	bcf	status, 6	;RP1=0, select bank0
  6022  0759  1303               	bcf	(9),1	;volatile
  6023  075A  1089               	line	110
  6024                           	
  6025                           l2576:	
  6026  075B                     ;LCD.c: 110:    Lcd_Port(temp);
  6027                           	movf	(Lcd_Write_Char@temp),w
  6028  075B  0820               	fcall	_Lcd_Port
  6029  075C  120A  158A  27DD  120A  118A  	line	111
  6030                           	
  6031                           l2578:	
  6032  0761                     ;LCD.c: 111:    PORTEbits.RE1 = 1;
  6033                           	bcf	status, 5	;RP0=0, select bank0
  6034  0761  1283               	bcf	status, 6	;RP1=0, select bank0
  6035  0762  1303               	bsf	(9),1	;volatile
  6036  0763  1489               	line	112
  6037                           	
  6038                           l2580:	
  6039  0764                     ;LCD.c: 112:    _delay((unsigned long)((40)*(500000/4000000.0)));
  6040                           		opt asmopt_push
  6041                           	opt asmopt_off
  6042                           	nop2	;2 cycle nop
  6043  0764  2F65               	nop2	;2 cycle nop
  6044  0765  2F66               	nop
  6045  0766  0000               	opt asmopt_pop
  6046                           
  6047                           	line	113
  6048                           	
  6049                           l2582:	
  6050  0767                     ;LCD.c: 113:    PORTEbits.RE1 = 0;
  6051                           	bcf	status, 5	;RP0=0, select bank0
  6052  0767  1283               	bcf	status, 6	;RP1=0, select bank0
  6053  0768  1303               	bcf	(9),1	;volatile
  6054  0769  1089               	line	114
  6055                           ;LCD.c: 114:     }
  6056                           	goto	l227
  6057  076A  2F80               	line	117
  6058                           ;LCD.c: 117:     else if(modo==8)
  6059                           	
  6060                           l224:	
  6061  076B                     	
  6062                           l2584:	
  6063  076B                     		movlw	8
  6064  076B  3008               	xorwf	((Lcd_Write_Char@modo)),w
  6065  076C  0674               iorwf	((Lcd_Write_Char@modo+1)),w
  6066  076D  0475               	btfss	status,2
  6067  076E  1D03               	goto	u2281
  6068  076F  2F71               	goto	u2280
  6069  0770  2F72               u2281:
  6070  0771                     	goto	l227
  6071  0771  2F80               u2280:
  6072  0772                     	line	119
  6073                           	
  6074                           l2586:	
  6075  0772                     ;LCD.c: 118:     {;LCD.c: 119:     PORTEbits.RE0 = 1;
  6076                           	bsf	(9),0	;volatile
  6077  0772  1409               	line	120
  6078                           	
  6079                           l2588:	
  6080  0773                     ;LCD.c: 120:     PORTB = a;
  6081                           	movf	(Lcd_Write_Char@a),w
  6082  0773  0822               	movwf	(6)	;volatile
  6083  0774  0086               	line	121
  6084                           	
  6085                           l2590:	
  6086  0775                     ;LCD.c: 121:     PORTEbits.RE1 = 1;
  6087                           	bsf	(9),1	;volatile
  6088  0775  1489               	line	122
  6089                           ;LCD.c: 122:     _delay((unsigned long)((1)*(500000/4000.0)));
  6090                           	opt asmopt_push
  6091                           opt asmopt_off
  6092                           	movlw	41
  6093  0776  3029               movwf	((??_Lcd_Write_Char+0)+0),f
  6094  0777  00F6               	u2747:
  6095  0778                     decfsz	(??_Lcd_Write_Char+0)+0,f
  6096  0778  0BF6               	goto	u2747
  6097  0779  2F78               	nop
  6098  077A  0000               opt asmopt_pop
  6099                           
  6100                           	line	123
  6101                           	
  6102                           l2592:	
  6103  077B                     ;LCD.c: 123:     PORTEbits.RE1 = 0;
  6104                           	bcf	status, 5	;RP0=0, select bank0
  6105  077B  1283               	bcf	status, 6	;RP1=0, select bank0
  6106  077C  1303               	bcf	(9),1	;volatile
  6107  077D  1089               	goto	l227
  6108  077E  2F80               	line	124
  6109                           ;LCD.c: 124:     }
  6110                           	
  6111                           l226:	
  6112  077F                     	goto	l227
  6113  077F  2F80               	
  6114                           l225:	
  6115  0780                     	line	125
  6116                           	
  6117                           l227:	
  6118  0780                     	return
  6119  0780  0008               	opt stack 0
  6120                           GLOBAL	__end_of_Lcd_Write_Char
  6121                           	__end_of_Lcd_Write_Char:
  6122  0781                     	signat	_Lcd_Write_Char,8313
  6123                           	global	_Lcd_Port
  6124                           
  6125 ;; *************** function _Lcd_Port *****************
  6126 ;; Defined at:
  6127 ;;		line 20 in file "LCD.c"
  6128 ;; Parameters:    Size  Location     Type
  6129 ;;  a               1    wreg     unsigned char 
  6130 ;; Auto vars:     Size  Location     Type
  6131 ;;  a               1    3[COMMON] unsigned char 
  6132 ;; Return value:  Size  Location     Type
  6133 ;;                  1    wreg      void 
  6134 ;; Registers used:
  6135 ;;		wreg
  6136 ;; Tracked objects:
  6137 ;;		On entry : 0/0
  6138 ;;		On exit  : 0/0
  6139 ;;		Unchanged: 0/0
  6140 ;; Data sizes:     COMMON   BANK0   BANK1   BANK3   BANK2
  6141 ;;      Params:         0       0       0       0       0
  6142 ;;      Locals:         1       0       0       0       0
  6143 ;;      Temps:          0       0       0       0       0
  6144 ;;      Totals:         1       0       0       0       0
  6145 ;;Total ram usage:        1 bytes
  6146 ;; Hardware stack levels used:    1
  6147 ;; Hardware stack levels required when called:    1
  6148 ;; This function calls:
  6149 ;;		Nothing
  6150 ;; This function is called by:
  6151 ;;		_Lcd_Write_Char
  6152 ;;		_Lcd_Cmd
  6153 ;;		_Lcd_Init
  6154 ;; This function uses a non-reentrant model
  6155 ;;
  6156                           psect	text12,local,class=CODE,delta=2,merge=1,group=0
  6157                           	line	20
  6158                           global __ptext12
  6159                           __ptext12:	;psect for function _Lcd_Port
  6160  0FDD                     psect	text12
  6161                           	file	"LCD.c"
  6162                           	line	20
  6163                           	global	__size_of_Lcd_Port
  6164                           	__size_of_Lcd_Port	equ	__end_of_Lcd_Port-_Lcd_Port
  6165  0023                     	
  6166                           _Lcd_Port:	
  6167  0FDD                     ;incstack = 0
  6168                           	opt	stack 4
  6169                           ; Regs used in _Lcd_Port: [wreg]
  6170                           ;Lcd_Port@a stored from wreg
  6171                           	movwf	(Lcd_Port@a)
  6172  0FDD  00F3               	line	23
  6173                           	
  6174                           l2552:	
  6175  0FDE                     ;LCD.c: 20: void Lcd_Port(char a);LCD.c: 21: {;LCD.c: 23:  if(a & 1)
  6176                           	btfss	(Lcd_Port@a),(0)&7
  6177  0FDE  1C73               	goto	u2221
  6178  0FDF  2FE1               	goto	u2220
  6179  0FE0  2FE2               u2221:
  6180  0FE1                     	goto	l198
  6181  0FE1  2FE6               u2220:
  6182  0FE2                     	line	24
  6183                           	
  6184                           l2554:	
  6185  0FE2                     ;LCD.c: 24:   PORTBbits.RB4 = 1;
  6186                           	bcf	status, 5	;RP0=0, select bank0
  6187  0FE2  1283               	bcf	status, 6	;RP1=0, select bank0
  6188  0FE3  1303               	bsf	(6),4	;volatile
  6189  0FE4  1606               	goto	l199
  6190  0FE5  2FE9               	line	25
  6191                           ;LCD.c: 25:  else
  6192                           	
  6193                           l198:	
  6194  0FE6                     	line	26
  6195                           ;LCD.c: 26:   PORTBbits.RB4 = 0;
  6196                           	bcf	status, 5	;RP0=0, select bank0
  6197  0FE6  1283               	bcf	status, 6	;RP1=0, select bank0
  6198  0FE7  1303               	bcf	(6),4	;volatile
  6199  0FE8  1206               	
  6200                           l199:	
  6201  0FE9                     	line	28
  6202                           ;LCD.c: 28:  if(a & 2)
  6203                           	btfss	(Lcd_Port@a),(1)&7
  6204  0FE9  1CF3               	goto	u2231
  6205  0FEA  2FEC               	goto	u2230
  6206  0FEB  2FED               u2231:
  6207  0FEC                     	goto	l200
  6208  0FEC  2FEF               u2230:
  6209  0FED                     	line	29
  6210                           	
  6211                           l2556:	
  6212  0FED                     ;LCD.c: 29:   PORTBbits.RB5 = 1;
  6213                           	bsf	(6),5	;volatile
  6214  0FED  1686               	goto	l201
  6215  0FEE  2FF0               	line	30
  6216                           ;LCD.c: 30:  else
  6217                           	
  6218                           l200:	
  6219  0FEF                     	line	31
  6220                           ;LCD.c: 31:   PORTBbits.RB5 = 0;
  6221                           	bcf	(6),5	;volatile
  6222  0FEF  1286               	
  6223                           l201:	
  6224  0FF0                     	line	33
  6225                           ;LCD.c: 33:  if(a & 4)
  6226                           	btfss	(Lcd_Port@a),(2)&7
  6227  0FF0  1D73               	goto	u2241
  6228  0FF1  2FF3               	goto	u2240
  6229  0FF2  2FF4               u2241:
  6230  0FF3                     	goto	l202
  6231  0FF3  2FF6               u2240:
  6232  0FF4                     	line	34
  6233                           	
  6234                           l2558:	
  6235  0FF4                     ;LCD.c: 34:   PORTBbits.RB6 = 1;
  6236                           	bsf	(6),6	;volatile
  6237  0FF4  1706               	goto	l203
  6238  0FF5  2FF7               	line	35
  6239                           ;LCD.c: 35:  else
  6240                           	
  6241                           l202:	
  6242  0FF6                     	line	36
  6243                           ;LCD.c: 36:   PORTBbits.RB6 = 0;
  6244                           	bcf	(6),6	;volatile
  6245  0FF6  1306               	
  6246                           l203:	
  6247  0FF7                     	line	38
  6248                           ;LCD.c: 38:  if(a & 8)
  6249                           	btfss	(Lcd_Port@a),(3)&7
  6250  0FF7  1DF3               	goto	u2251
  6251  0FF8  2FFA               	goto	u2250
  6252  0FF9  2FFB               u2251:
  6253  0FFA                     	goto	l204
  6254  0FFA  2FFD               u2250:
  6255  0FFB                     	line	39
  6256                           	
  6257                           l2560:	
  6258  0FFB                     ;LCD.c: 39:   PORTBbits.RB7 = 1;
  6259                           	bsf	(6),7	;volatile
  6260  0FFB  1786               	goto	l206
  6261  0FFC  2FFF               	line	40
  6262                           ;LCD.c: 40:  else
  6263                           	
  6264                           l204:	
  6265  0FFD                     	line	41
  6266                           ;LCD.c: 41:   PORTBbits.RB7 = 0;
  6267                           	bcf	(6),7	;volatile
  6268  0FFD  1386               	goto	l206
  6269  0FFE  2FFF               	
  6270                           l205:	
  6271  0FFF                     	line	42
  6272                           	
  6273                           l206:	
  6274  0FFF                     	return
  6275  0FFF  0008               	opt stack 0
  6276                           GLOBAL	__end_of_Lcd_Port
  6277                           	__end_of_Lcd_Port:
  6278  1000                     	signat	_Lcd_Port,4217
  6279                           	global	_Lcd_Set_Cursor_8bits
  6280                           
  6281 ;; *************** function _Lcd_Set_Cursor_8bits *****************
  6282 ;; Defined at:
  6283 ;;		line 166 in file "LCD.c"
  6284 ;; Parameters:    Size  Location     Type
  6285 ;;  y               1    wreg     unsigned char 
  6286 ;;  x               1    5[COMMON] unsigned char 
  6287 ;; Auto vars:     Size  Location     Type
  6288 ;;  y               1    6[COMMON] unsigned char 
  6289 ;; Return value:  Size  Location     Type
  6290 ;;                  1    wreg      void 
  6291 ;; Registers used:
  6292 ;;		wreg, status,2, status,0, pclath, cstack
  6293 ;; Tracked objects:
  6294 ;;		On entry : 0/0
  6295 ;;		On exit  : 0/0
  6296 ;;		Unchanged: 0/0
  6297 ;; Data sizes:     COMMON   BANK0   BANK1   BANK3   BANK2
  6298 ;;      Params:         1       0       0       0       0
  6299 ;;      Locals:         1       0       0       0       0
  6300 ;;      Temps:          0       0       0       0       0
  6301 ;;      Totals:         2       0       0       0       0
  6302 ;;Total ram usage:        2 bytes
  6303 ;; Hardware stack levels used:    1
  6304 ;; Hardware stack levels required when called:    2
  6305 ;; This function calls:
  6306 ;;		_Lcd_Cmd_8bits
  6307 ;; This function is called by:
  6308 ;;		_main
  6309 ;; This function uses a non-reentrant model
  6310 ;;
  6311                           psect	text13,local,class=CODE,delta=2,merge=1,group=0
  6312                           	line	166
  6313                           global __ptext13
  6314                           __ptext13:	;psect for function _Lcd_Set_Cursor_8bits
  6315  0FBF                     psect	text13
  6316                           	file	"LCD.c"
  6317                           	line	166
  6318                           	global	__size_of_Lcd_Set_Cursor_8bits
  6319                           	__size_of_Lcd_Set_Cursor_8bits	equ	__end_of_Lcd_Set_Cursor_8bits-_Lcd_Set_Cursor_8bits

  6320  001E                     	
  6321                           _Lcd_Set_Cursor_8bits:	
  6322  0FBF                     ;incstack = 0
  6323                           	opt	stack 5
  6324                           ; Regs used in _Lcd_Set_Cursor_8bits: [wreg+status,2+status,0+pclath+cstack]
  6325                           ;Lcd_Set_Cursor_8bits@y stored from wreg
  6326                           	movwf	(Lcd_Set_Cursor_8bits@y)
  6327  0FBF  00F6               	line	169
  6328                           	
  6329                           l2014:	
  6330  0FC0                     ;LCD.c: 166: void Lcd_Set_Cursor_8bits(unsigned char y, unsigned char x);LCD.c: 167: {;L
                                 CD.c: 169:     if(y == 1)
  6331                           		decf	((Lcd_Set_Cursor_8bits@y)),w
  6332  0FC0  0376               	btfss	status,2
  6333  0FC1  1D03               	goto	u1371
  6334  0FC2  2FC4               	goto	u1370
  6335  0FC3  2FC5               u1371:
  6336  0FC4                     	goto	l2018
  6337  0FC4  2FCD               u1370:
  6338  0FC5                     	line	171
  6339                           	
  6340                           l2016:	
  6341  0FC5                     ;LCD.c: 170:  {;LCD.c: 171:         Lcd_Cmd_8bits(0x80 + x - 1);
  6342                           	movf	(Lcd_Set_Cursor_8bits@x),w
  6343  0FC5  0875               	addlw	07Fh
  6344  0FC6  3E7F               	fcall	_Lcd_Cmd_8bits
  6345  0FC7  120A  158A  276B  120A  158A  	line	172
  6346                           ;LCD.c: 172:  }
  6347                           	goto	l251
  6348  0FCC  2FDC               	line	174
  6349                           ;LCD.c: 174:  else if(y == 2)
  6350                           	
  6351                           l248:	
  6352  0FCD                     	
  6353                           l2018:	
  6354  0FCD                     		movlw	2
  6355  0FCD  3002               	xorwf	((Lcd_Set_Cursor_8bits@y)),w
  6356  0FCE  0676               	btfss	status,2
  6357  0FCF  1D03               	goto	u1381
  6358  0FD0  2FD2               	goto	u1380
  6359  0FD1  2FD3               u1381:
  6360  0FD2                     	goto	l251
  6361  0FD2  2FDC               u1380:
  6362  0FD3                     	line	176
  6363                           	
  6364                           l2020:	
  6365  0FD3                     ;LCD.c: 175:  {;LCD.c: 176:   Lcd_Cmd_8bits(0xC0 + x - 1);
  6366                           	movf	(Lcd_Set_Cursor_8bits@x),w
  6367  0FD3  0875               	addlw	0BFh
  6368  0FD4  3EBF               	fcall	_Lcd_Cmd_8bits
  6369  0FD5  120A  158A  276B  120A  158A  	goto	l251
  6370  0FDA  2FDC               	line	177
  6371                           ;LCD.c: 177:  }
  6372                           	
  6373                           l250:	
  6374  0FDB                     	goto	l251
  6375  0FDB  2FDC               	
  6376                           l249:	
  6377  0FDC                     	line	178
  6378                           	
  6379                           l251:	
  6380  0FDC                     	return
  6381  0FDC  0008               	opt stack 0
  6382                           GLOBAL	__end_of_Lcd_Set_Cursor_8bits
  6383                           	__end_of_Lcd_Set_Cursor_8bits:
  6384  0FDD                     	signat	_Lcd_Set_Cursor_8bits,8313
  6385                           	global	_Lcd_Init_8bits
  6386                           
  6387 ;; *************** function _Lcd_Init_8bits *****************
  6388 ;; Defined at:
  6389 ;;		line 180 in file "LCD.c"
  6390 ;; Parameters:    Size  Location     Type
  6391 ;;		None
  6392 ;; Auto vars:     Size  Location     Type
  6393 ;;		None
  6394 ;; Return value:  Size  Location     Type
  6395 ;;                  1    wreg      void 
  6396 ;; Registers used:
  6397 ;;		wreg, status,2, status,0, pclath, cstack
  6398 ;; Tracked objects:
  6399 ;;		On entry : 0/0
  6400 ;;		On exit  : 0/0
  6401 ;;		Unchanged: 0/0
  6402 ;; Data sizes:     COMMON   BANK0   BANK1   BANK3   BANK2
  6403 ;;      Params:         0       0       0       0       0
  6404 ;;      Locals:         0       0       0       0       0
  6405 ;;      Temps:          2       0       0       0       0
  6406 ;;      Totals:         2       0       0       0       0
  6407 ;;Total ram usage:        2 bytes
  6408 ;; Hardware stack levels used:    1
  6409 ;; Hardware stack levels required when called:    2
  6410 ;; This function calls:
  6411 ;;		_Lcd_Cmd_8bits
  6412 ;; This function is called by:
  6413 ;;		_main
  6414 ;; This function uses a non-reentrant model
  6415 ;;
  6416                           psect	text14,local,class=CODE,delta=2,merge=1,group=0
  6417                           	line	180
  6418                           global __ptext14
  6419                           __ptext14:	;psect for function _Lcd_Init_8bits
  6420  0781                     psect	text14
  6421                           	file	"LCD.c"
  6422                           	line	180
  6423                           	global	__size_of_Lcd_Init_8bits
  6424                           	__size_of_Lcd_Init_8bits	equ	__end_of_Lcd_Init_8bits-_Lcd_Init_8bits
  6425  004B                     	
  6426                           _Lcd_Init_8bits:	
  6427  0781                     ;incstack = 0
  6428                           	opt	stack 5
  6429                           ; Regs used in _Lcd_Init_8bits: [wreg+status,2+status,0+pclath+cstack]
  6430                           	line	182
  6431                           	
  6432                           l1986:	
  6433  0781                     ;LCD.c: 182:     PORTB = 0;
  6434                           	bcf	status, 5	;RP0=0, select bank0
  6435  0781  1283               	bcf	status, 6	;RP1=0, select bank0
  6436  0782  1303               	clrf	(6)	;volatile
  6437  0783  0186               	line	183
  6438                           	
  6439                           l1988:	
  6440  0784                     ;LCD.c: 183:     _delay((unsigned long)((20)*(500000/4000.0)));
  6441                           	opt asmopt_push
  6442                           opt asmopt_off
  6443                           movlw	4
  6444  0784  3004               movwf	((??_Lcd_Init_8bits+0)+0+1),f
  6445  0785  00F6               	movlw	61
  6446  0786  303D               movwf	((??_Lcd_Init_8bits+0)+0),f
  6447  0787  00F5               	u2757:
  6448  0788                     decfsz	((??_Lcd_Init_8bits+0)+0),f
  6449  0788  0BF5               	goto	u2757
  6450  0789  2F88               	decfsz	((??_Lcd_Init_8bits+0)+0+1),f
  6451  078A  0BF6               	goto	u2757
  6452  078B  2F88               	nop2
  6453  078C  2F8D               opt asmopt_pop
  6454                           
  6455                           	line	184
  6456                           	
  6457                           l1990:	
  6458  078D                     ;LCD.c: 184:     Lcd_Cmd_8bits(0x030);
  6459                           	movlw	low(030h)
  6460  078D  3030               	fcall	_Lcd_Cmd_8bits
  6461  078E  120A  158A  276B  120A  118A  	line	185
  6462                           	
  6463                           l1992:	
  6464  0793                     ;LCD.c: 185:     _delay((unsigned long)((5)*(500000/4000.0)));
  6465                           	opt asmopt_push
  6466                           opt asmopt_off
  6467                           	movlw	208
  6468  0793  30D0               movwf	((??_Lcd_Init_8bits+0)+0),f
  6469  0794  00F5               	u2767:
  6470  0795                     decfsz	(??_Lcd_Init_8bits+0)+0,f
  6471  0795  0BF5               	goto	u2767
  6472  0796  2F95               opt asmopt_pop
  6473                           
  6474                           	line	186
  6475                           	
  6476                           l1994:	
  6477  0797                     ;LCD.c: 186:     Lcd_Cmd_8bits(0x030);
  6478                           	movlw	low(030h)
  6479  0797  3030               	fcall	_Lcd_Cmd_8bits
  6480  0798  120A  158A  276B  120A  118A  	line	187
  6481                           	
  6482                           l1996:	
  6483  079D                     ;LCD.c: 187:     _delay((unsigned long)((160)*(500000/4000000.0)));
  6484                           	opt asmopt_push
  6485                           opt asmopt_off
  6486                           	movlw	6
  6487  079D  3006               movwf	((??_Lcd_Init_8bits+0)+0),f
  6488  079E  00F5               	u2777:
  6489  079F                     decfsz	(??_Lcd_Init_8bits+0)+0,f
  6490  079F  0BF5               	goto	u2777
  6491  07A0  2F9F               	nop
  6492  07A1  0000               opt asmopt_pop
  6493                           
  6494                           	line	188
  6495                           	
  6496                           l1998:	
  6497  07A2                     ;LCD.c: 188:     Lcd_Cmd_8bits(0x030);
  6498                           	movlw	low(030h)
  6499  07A2  3030               	fcall	_Lcd_Cmd_8bits
  6500  07A3  120A  158A  276B  120A  118A  	line	189
  6501                           	
  6502                           l2000:	
  6503  07A8                     ;LCD.c: 189:     _delay((unsigned long)((160)*(500000/4000000.0)));
  6504                           	opt asmopt_push
  6505                           opt asmopt_off
  6506                           	movlw	6
  6507  07A8  3006               movwf	((??_Lcd_Init_8bits+0)+0),f
  6508  07A9  00F5               	u2787:
  6509  07AA                     decfsz	(??_Lcd_Init_8bits+0)+0,f
  6510  07AA  0BF5               	goto	u2787
  6511  07AB  2FAA               	nop
  6512  07AC  0000               opt asmopt_pop
  6513                           
  6514                           	line	191
  6515                           	
  6516                           l2002:	
  6517  07AD                     ;LCD.c: 191:     Lcd_Cmd_8bits(0x38);
  6518                           	movlw	low(038h)
  6519  07AD  3038               	fcall	_Lcd_Cmd_8bits
  6520  07AE  120A  158A  276B  120A  118A  	line	195
  6521                           	
  6522                           l2004:	
  6523  07B3                     ;LCD.c: 195:     Lcd_Cmd_8bits(0x14);
  6524                           	movlw	low(014h)
  6525  07B3  3014               	fcall	_Lcd_Cmd_8bits
  6526  07B4  120A  158A  276B  120A  118A  	line	196
  6527                           	
  6528                           l2006:	
  6529  07B9                     ;LCD.c: 196:     Lcd_Cmd_8bits(0x6);
  6530                           	movlw	low(06h)
  6531  07B9  3006               	fcall	_Lcd_Cmd_8bits
  6532  07BA  120A  158A  276B  120A  118A  	line	197
  6533                           	
  6534                           l2008:	
  6535  07BF                     ;LCD.c: 197:     Lcd_Cmd_8bits(0xc);
  6536                           	movlw	low(0Ch)
  6537  07BF  300C               	fcall	_Lcd_Cmd_8bits
  6538  07C0  120A  158A  276B  120A  118A  	line	198
  6539                           	
  6540                           l2010:	
  6541  07C5                     ;LCD.c: 198:     Lcd_Cmd_8bits(0x2);
  6542                           	movlw	low(02h)
  6543  07C5  3002               	fcall	_Lcd_Cmd_8bits
  6544  07C6  120A  158A  276B  120A  118A  	line	199
  6545                           	
  6546                           l254:	
  6547  07CB                     	return
  6548  07CB  0008               	opt stack 0
  6549                           GLOBAL	__end_of_Lcd_Init_8bits
  6550                           	__end_of_Lcd_Init_8bits:
  6551  07CC                     	signat	_Lcd_Init_8bits,89
  6552                           	global	_Lcd_Clear_8bits
  6553                           
  6554 ;; *************** function _Lcd_Clear_8bits *****************
  6555 ;; Defined at:
  6556 ;;		line 160 in file "LCD.c"
  6557 ;; Parameters:    Size  Location     Type
  6558 ;;		None
  6559 ;; Auto vars:     Size  Location     Type
  6560 ;;		None
  6561 ;; Return value:  Size  Location     Type
  6562 ;;                  1    wreg      void 
  6563 ;; Registers used:
  6564 ;;		wreg, status,2, status,0, pclath, cstack
  6565 ;; Tracked objects:
  6566 ;;		On entry : 0/0
  6567 ;;		On exit  : 0/0
  6568 ;;		Unchanged: 0/0
  6569 ;; Data sizes:     COMMON   BANK0   BANK1   BANK3   BANK2
  6570 ;;      Params:         0       0       0       0       0
  6571 ;;      Locals:         0       0       0       0       0
  6572 ;;      Temps:          0       0       0       0       0
  6573 ;;      Totals:         0       0       0       0       0
  6574 ;;Total ram usage:        0 bytes
  6575 ;; Hardware stack levels used:    1
  6576 ;; Hardware stack levels required when called:    2
  6577 ;; This function calls:
  6578 ;;		_Lcd_Cmd_8bits
  6579 ;; This function is called by:
  6580 ;;		_main
  6581 ;; This function uses a non-reentrant model
  6582 ;;
  6583                           psect	text15,local,class=CODE,delta=2,merge=1,group=0
  6584                           	line	160
  6585                           global __ptext15
  6586                           __ptext15:	;psect for function _Lcd_Clear_8bits
  6587  0F5E                     psect	text15
  6588                           	file	"LCD.c"
  6589                           	line	160
  6590                           	global	__size_of_Lcd_Clear_8bits
  6591                           	__size_of_Lcd_Clear_8bits	equ	__end_of_Lcd_Clear_8bits-_Lcd_Clear_8bits
  6592  000D                     	
  6593                           _Lcd_Clear_8bits:	
  6594  0F5E                     ;incstack = 0
  6595                           	opt	stack 5
  6596                           ; Regs used in _Lcd_Clear_8bits: [wreg+status,2+status,0+pclath+cstack]
  6597                           	line	162
  6598                           	
  6599                           l2012:	
  6600  0F5E                     ;LCD.c: 162:     Lcd_Cmd_8bits(0);
  6601                           	movlw	low(0)
  6602  0F5E  3000               	fcall	_Lcd_Cmd_8bits
  6603  0F5F  120A  158A  276B  120A  158A  	line	163
  6604                           ;LCD.c: 163:  Lcd_Cmd_8bits(1);
  6605                           	movlw	low(01h)
  6606  0F64  3001               	fcall	_Lcd_Cmd_8bits
  6607  0F65  120A  158A  276B  120A  158A  	line	164
  6608                           	
  6609                           l245:	
  6610  0F6A                     	return
  6611  0F6A  0008               	opt stack 0
  6612                           GLOBAL	__end_of_Lcd_Clear_8bits
  6613                           	__end_of_Lcd_Clear_8bits:
  6614  0F6B                     	signat	_Lcd_Clear_8bits,89
  6615                           	global	_Lcd_Cmd_8bits
  6616                           
  6617 ;; *************** function _Lcd_Cmd_8bits *****************
  6618 ;; Defined at:
  6619 ;;		line 149 in file "LCD.c"
  6620 ;; Parameters:    Size  Location     Type
  6621 ;;  comando         1    wreg     unsigned char 
  6622 ;; Auto vars:     Size  Location     Type
  6623 ;;  comando         1    4[COMMON] unsigned char 
  6624 ;; Return value:  Size  Location     Type
  6625 ;;                  1    wreg      void 
  6626 ;; Registers used:
  6627 ;;		wreg
  6628 ;; Tracked objects:
  6629 ;;		On entry : 0/0
  6630 ;;		On exit  : 0/0
  6631 ;;		Unchanged: 0/0
  6632 ;; Data sizes:     COMMON   BANK0   BANK1   BANK3   BANK2
  6633 ;;      Params:         0       0       0       0       0
  6634 ;;      Locals:         1       0       0       0       0
  6635 ;;      Temps:          1       0       0       0       0
  6636 ;;      Totals:         2       0       0       0       0
  6637 ;;Total ram usage:        2 bytes
  6638 ;; Hardware stack levels used:    1
  6639 ;; Hardware stack levels required when called:    1
  6640 ;; This function calls:
  6641 ;;		Nothing
  6642 ;; This function is called by:
  6643 ;;		_Lcd_Clear_8bits
  6644 ;;		_Lcd_Set_Cursor_8bits
  6645 ;;		_Lcd_Init_8bits
  6646 ;; This function uses a non-reentrant model
  6647 ;;
  6648                           psect	text16,local,class=CODE,delta=2,merge=1,group=0
  6649                           	line	149
  6650                           global __ptext16
  6651                           __ptext16:	;psect for function _Lcd_Cmd_8bits
  6652  0F6B                     psect	text16
  6653                           	file	"LCD.c"
  6654                           	line	149
  6655                           	global	__size_of_Lcd_Cmd_8bits
  6656                           	__size_of_Lcd_Cmd_8bits	equ	__end_of_Lcd_Cmd_8bits-_Lcd_Cmd_8bits
  6657  0010                     	
  6658                           _Lcd_Cmd_8bits:	
  6659  0F6B                     ;incstack = 0
  6660                           	opt	stack 5
  6661                           ; Regs used in _Lcd_Cmd_8bits: [wreg]
  6662                           ;Lcd_Cmd_8bits@comando stored from wreg
  6663                           	movwf	(Lcd_Cmd_8bits@comando)
  6664  0F6B  00F4               	line	151
  6665                           	
  6666                           l1882:	
  6667  0F6C                     ;LCD.c: 149: void Lcd_Cmd_8bits(unsigned char comando);LCD.c: 150: {;LCD.c: 151:  PORTEb
                                 its.RE0 = 0;
  6668                           	bcf	status, 5	;RP0=0, select bank0
  6669  0F6C  1283               	bcf	status, 6	;RP1=0, select bank0
  6670  0F6D  1303               	bcf	(9),0	;volatile
  6671  0F6E  1009               	line	152
  6672                           	
  6673                           l1884:	
  6674  0F6F                     ;LCD.c: 152:  PORTB = comando;
  6675                           	movf	(Lcd_Cmd_8bits@comando),w
  6676  0F6F  0874               	movwf	(6)	;volatile
  6677  0F70  0086               	line	154
  6678                           	
  6679                           l1886:	
  6680  0F71                     ;LCD.c: 154:     PORTEbits.RE1 = 1;
  6681                           	bsf	(9),1	;volatile
  6682  0F71  1489               	line	155
  6683                           ;LCD.c: 155:     _delay((unsigned long)((4)*(500000/4000.0)));
  6684                           	opt asmopt_push
  6685                           opt asmopt_off
  6686                           	movlw	166
  6687  0F72  30A6               movwf	((??_Lcd_Cmd_8bits+0)+0),f
  6688  0F73  00F3               	u2797:
  6689  0F74                     decfsz	(??_Lcd_Cmd_8bits+0)+0,f
  6690  0F74  0BF3               	goto	u2797
  6691  0F75  2F74               	nop
  6692  0F76  0000               opt asmopt_pop
  6693                           
  6694                           	line	156
  6695                           	
  6696                           l1888:	
  6697  0F77                     ;LCD.c: 156:     PORTEbits.RE1 = 0;
  6698                           	bcf	status, 5	;RP0=0, select bank0
  6699  0F77  1283               	bcf	status, 6	;RP1=0, select bank0
  6700  0F78  1303               	bcf	(9),1	;volatile
  6701  0F79  1089               	line	158
  6702                           	
  6703                           l242:	
  6704  0F7A                     	return
  6705  0F7A  0008               	opt stack 0
  6706                           GLOBAL	__end_of_Lcd_Cmd_8bits
  6707                           	__end_of_Lcd_Cmd_8bits:
  6708  0F7B                     	signat	_Lcd_Cmd_8bits,4217
  6709                           	global	_interrupciones
  6710                           
  6711 ;; *************** function _interrupciones *****************
  6712 ;; Defined at:
  6713 ;;		line 50 in file "mainS1proyect.c"
  6714 ;; Parameters:    Size  Location     Type
  6715 ;;		None
  6716 ;; Auto vars:     Size  Location     Type
  6717 ;;		None
  6718 ;; Return value:  Size  Location     Type
  6719 ;;                  1    wreg      void 
  6720 ;; Registers used:
  6721 ;;		wreg
  6722 ;; Tracked objects:
  6723 ;;		On entry : 0/0
  6724 ;;		On exit  : 0/0
  6725 ;;		Unchanged: 0/0
  6726 ;; Data sizes:     COMMON   BANK0   BANK1   BANK3   BANK2
  6727 ;;      Params:         0       0       0       0       0
  6728 ;;      Locals:         0       0       0       0       0
  6729 ;;      Temps:          3       0       0       0       0
  6730 ;;      Totals:         3       0       0       0       0
  6731 ;;Total ram usage:        3 bytes
  6732 ;; Hardware stack levels used:    1
  6733 ;; This function calls:
  6734 ;;		Nothing
  6735 ;; This function is called by:
  6736 ;;		Interrupt level 1
  6737 ;; This function uses a non-reentrant model
  6738 ;;
  6739                           psect	text17,local,class=CODE,delta=2,merge=1,group=0
  6740                           	file	"mainS1proyect.c"
  6741                           	line	50
  6742                           global __ptext17
  6743                           __ptext17:	;psect for function _interrupciones
  6744  0F7B                     psect	text17
  6745                           	file	"mainS1proyect.c"
  6746                           	line	50
  6747                           	global	__size_of_interrupciones
  6748                           	__size_of_interrupciones	equ	__end_of_interrupciones-_interrupciones
  6749  0014                     	
  6750                           _interrupciones:	
  6751  0F7B                     ;incstack = 0
  6752                           	opt	stack 4
  6753                           ; Regs used in _interrupciones: [wreg]
  6754                           psect	intentry,class=CODE,delta=2
  6755                           global __pintentry
  6756                           __pintentry:
  6757  0004                     global interrupt_function
  6758                           interrupt_function:
  6759  0004                     	global saved_w
  6760                           	saved_w	set	btemp+0
  6761  007E                     	movwf	saved_w
  6762  0004  00FE               	swapf	status,w
  6763  0005  0E03               	movwf	(??_interrupciones+1)
  6764  0006  00F1               	movf	pclath,w
  6765  0007  080A               	movwf	(??_interrupciones+2)
  6766  0008  00F2               	ljmp	_interrupciones
  6767  0009  120A  158A  2F7B   psect	text17
  6768                           	line	53
  6769                           	
  6770                           i1l2344:	
  6771  0F7B                     ;mainS1proyect.c: 53:     if (PIR1bits.ADIF){
  6772                           	bcf	status, 5	;RP0=0, select bank0
  6773  0F7B  1283               	bcf	status, 6	;RP1=0, select bank0
  6774  0F7C  1303               	btfss	(12),6	;volatile
  6775  0F7D  1F0C               	goto	u212_21
  6776  0F7E  2F80               	goto	u212_20
  6777  0F7F  2F81               u212_21:
  6778  0F80                     	goto	i1l92
  6779  0F80  2F88               u212_20:
  6780  0F81                     	line	54
  6781                           	
  6782                           i1l2346:	
  6783  0F81                     ;mainS1proyect.c: 54:         PIR1bits.ADIF = 0;
  6784                           	bcf	(12),6	;volatile
  6785  0F81  130C               	line	55
  6786                           	
  6787                           i1l2348:	
  6788  0F82                     ;mainS1proyect.c: 55:         res = ADRESH;
  6789                           	movf	(30),w	;volatile
  6790  0F82  081E               	movwf	(??_interrupciones+0)+0
  6791  0F83  00F0               	movf	(??_interrupciones+0)+0,w
  6792  0F84  0870               	movwf	(_res)
  6793  0F85  00D4               	line	56
  6794                           	
  6795                           i1l2350:	
  6796  0F86                     ;mainS1proyect.c: 56:         ADCON0bits.GO_nDONE = 1;
  6797                           	bsf	(31),1	;volatile
  6798  0F86  149F               	goto	i1l92
  6799  0F87  2F88               	line	57
  6800                           ;mainS1proyect.c: 57:     }
  6801                           	
  6802                           i1l91:	
  6803  0F88                     	line	59
  6804                           	
  6805                           i1l92:	
  6806  0F88                     	movf	(??_interrupciones+2),w
  6807  0F88  0872               	movwf	pclath
  6808  0F89  008A               	swapf	(??_interrupciones+1)^0FFFFFF80h,w
  6809  0F8A  0E71               	movwf	status
  6810  0F8B  0083               	swapf	saved_w,f
  6811  0F8C  0EFE               	swapf	saved_w,w
  6812  0F8D  0E7E               	retfie
  6813  0F8E  0009               	opt stack 0
  6814                           GLOBAL	__end_of_interrupciones
  6815                           	__end_of_interrupciones:
  6816  0F8F                     	signat	_interrupciones,89
  6817                           global	___latbits
  6818                           ___latbits	equ	2
  6819  0002                     	global	btemp
  6820                           	btemp set 07Eh
  6821  007E                     
  6822                           	DABS	1,126,2	;btemp
  6823                           	global	wtemp0
  6824                           	wtemp0 set btemp+0
  6825  007E                     	end


Data Sizes:
    Strings     61
    Constant    0
    Data        0
    BSS         6
    Persistent  0
    Stack       0

Auto Spaces:
    Space          Size  Autos    Used
    COMMON           14      9      11
    BANK0            80     49      53
    BANK1            80      0       0
    BANK3            96      0       0
    BANK2            96      0       0

Pointer List with Targets:

    Lcd_Write_String@a	PTR unsigned char  size(1) Largest target is 17
		 -> STR_5(CODE[13]), STR_4(CODE[3]), STR_3(CODE[12]), STR_2(CODE[17]), 
		 -> STR_1(CODE[16]), 


Critical Paths under _main in COMMON

    _main->___fltol
    ___fltol->___xxtofl
    ___fldiv->___xxtofl
    _Lcd_Write_String->_Lcd_Write_Char
    _Lcd_Write_Char->_Lcd_Port
    _Lcd_Set_Cursor_8bits->_Lcd_Cmd_8bits
    _Lcd_Init_8bits->_Lcd_Cmd_8bits
    _Lcd_Clear_8bits->_Lcd_Cmd_8bits

Critical Paths under _interrupciones in COMMON

    None.

Critical Paths under _main in BANK0

    _main->___fltol
    ___fltol->___fldiv
    ___fldiv->___xxtofl
    _Lcd_Write_String->_Lcd_Write_Char

Critical Paths under _interrupciones in BANK0

    None.

Critical Paths under _main in BANK1

    None.

Critical Paths under _interrupciones in BANK1

    None.

Critical Paths under _main in BANK3

    None.

Critical Paths under _interrupciones in BANK3

    None.

Critical Paths under _main in BANK2

    None.

Critical Paths under _interrupciones in BANK2

    None.

Call Graph Tables:

 ---------------------------------------------------------------------------------
 (Depth) Function   	        Calls       Base Space   Used Autos Params    Refs
 ---------------------------------------------------------------------------------
 (0) _main                                                 4     4      0    7053
                                             45 BANK0      4     4      0
                    _Lcd_Clear_8bits
                     _Lcd_Init_8bits
               _Lcd_Set_Cursor_8bits
                     _Lcd_Write_Char
                   _Lcd_Write_String
                            _PWMconf
                            ___awdiv
                            ___awmod
                            ___fldiv
                            ___fltol
                           ___xxtofl
                            _funcAdc
                               _init
                            _initOsc
 ---------------------------------------------------------------------------------
 (1) _initOsc                                              3     3      0      22
                                              3 COMMON     3     3      0
 ---------------------------------------------------------------------------------
 (1) _init                                                 0     0      0       0
 ---------------------------------------------------------------------------------
 (1) _funcAdc                                              5     3      2     218
                                              3 COMMON     5     3      2
 ---------------------------------------------------------------------------------
 (1) ___xxtofl                                            14    10      4     566
                                              3 COMMON     4     0      4
                                              0 BANK0     10    10      0
 ---------------------------------------------------------------------------------
 (1) ___fltol                                             11     7      4     427
                                              7 COMMON     2     2      0
                                             36 BANK0      9     5      4
                            ___fldiv (ARG)
                           ___xxtofl (ARG)
 ---------------------------------------------------------------------------------
 (1) ___fldiv                                             26    18      8    1273
                                             10 BANK0     26    18      8
                           ___xxtofl (ARG)
 ---------------------------------------------------------------------------------
 (1) ___awmod                                              7     3      4     973
                                              3 COMMON     5     1      4
                                              0 BANK0      2     2      0
 ---------------------------------------------------------------------------------
 (1) ___awdiv                                              9     5      4     604
                                              3 COMMON     5     1      4
                                              0 BANK0      4     4      0
 ---------------------------------------------------------------------------------
 (1) _PWMconf                                              0     0      0       0
 ---------------------------------------------------------------------------------
 (1) _Lcd_Write_String                                     5     3      2    1498
                                              3 BANK0      5     3      2
                     _Lcd_Write_Char
 ---------------------------------------------------------------------------------
 (2) _Lcd_Write_Char                                       6     4      2     707
                                              4 COMMON     3     1      2
                                              0 BANK0      3     3      0
                           _Lcd_Port
 ---------------------------------------------------------------------------------
 (3) _Lcd_Port                                             1     1      0     124
                                              3 COMMON     1     1      0
 ---------------------------------------------------------------------------------
 (1) _Lcd_Set_Cursor_8bits                                 2     1      1     718
                                              5 COMMON     2     1      1
                      _Lcd_Cmd_8bits
 ---------------------------------------------------------------------------------
 (1) _Lcd_Init_8bits                                       2     2      0      22
                                              5 COMMON     2     2      0
                      _Lcd_Cmd_8bits
 ---------------------------------------------------------------------------------
 (1) _Lcd_Clear_8bits                                      0     0      0      22
                      _Lcd_Cmd_8bits
 ---------------------------------------------------------------------------------
 (2) _Lcd_Cmd_8bits                                        2     2      0      22
                                              3 COMMON     2     2      0
 ---------------------------------------------------------------------------------
 Estimated maximum stack depth 3
 ---------------------------------------------------------------------------------
 (Depth) Function   	        Calls       Base Space   Used Autos Params    Refs
 ---------------------------------------------------------------------------------
 (4) _interrupciones                                       3     3      0       0
                                              0 COMMON     3     3      0
 ---------------------------------------------------------------------------------
 Estimated maximum stack depth 4
 ---------------------------------------------------------------------------------

 Call Graph Graphs:

 _main (ROOT)
   _Lcd_Clear_8bits
     _Lcd_Cmd_8bits
   _Lcd_Init_8bits
     _Lcd_Cmd_8bits
   _Lcd_Set_Cursor_8bits
     _Lcd_Cmd_8bits
   _Lcd_Write_Char
     _Lcd_Port
   _Lcd_Write_String
     _Lcd_Write_Char
       _Lcd_Port
   _PWMconf
   ___awdiv
   ___awmod
   ___fldiv
     ___xxtofl (ARG)
   ___fltol
     ___fldiv (ARG)
       ___xxtofl (ARG)
     ___xxtofl (ARG)
   ___xxtofl
   _funcAdc
   _init
   _initOsc

 _interrupciones (ROOT)

 Address spaces:
Name               Size   Autos  Total    Cost      Usage
BITCOMMON            E      0       0       0        0.0%
EEDATA             100      0       0       0        0.0%
NULL                 0      0       0       0        0.0%
CODE                 0      0       0       0        0.0%
COMMON               E      9       B       1       78.6%
BITSFR0              0      0       0       1        0.0%
SFR0                 0      0       0       1        0.0%
BITSFR1              0      0       0       2        0.0%
SFR1                 0      0       0       2        0.0%
STACK                0      0       0       2        0.0%
ABS                  0      0      40       3        0.0%
BITBANK0            50      0       0       4        0.0%
BITSFR3              0      0       0       4        0.0%
SFR3                 0      0       0       4        0.0%
BANK0               50     31      35       5       66.3%
BITSFR2              0      0       0       5        0.0%
SFR2                 0      0       0       5        0.0%
BITBANK1            50      0       0       6        0.0%
BANK1               50      0       0       7        0.0%
BITBANK3            60      0       0       8        0.0%
BANK3               60      0       0       9        0.0%
BITBANK2            60      0       0      10        0.0%
BANK2               60      0       0      11        0.0%
DATA                 0      0      40      12        0.0%


Microchip Technology PIC Macro Assembler V2.00 build -1524193055 
Symbol Table                                                                                   Fri Feb 28 07:31:05 2020

                 ___fldiv@aexp 0043                   ___fldiv@bexp 0042                              _a 0051  
                            _z 0079                              pc 0002                   ___fldiv@sign 003B  
                  __CFG_CP$OFF 0000                             l97 0291                             l98 029B  
                           l99 029D                   ___awdiv@sign 0021                             fsr 0004  
       __end_of_interrupciones 0F8F                            l100 02A7                            l101 02A7  
                          l110 0418                            l102 02AB                            l103 02AD  
                          l200 0FEF                            l104 02AD                            l201 0FF0  
                          l113 0FA4                            l121 070B                            l105 02B1  
                          l202 0FF6                            l130 06FE                            l122 06D4  
                          l106 03F1                            l203 0FF7                            l131 0704  
                          l123 072D                            l107 040B                            l204 0FFD  
                          l116 0FBE                            l132 072E                            l124 06DA  
                          l108 0417                            l205 0FFF                            l125 06E0  
                          l109 0418                            l206 0FFF                            l230 07EC  
                          l126 06E6                            l231 07D2                            l127 06EC  
                          l224 076B                            l232 07FA                            l128 06F2  
                          l225 0780                            l233 07FA                            l129 06F8  
                          l242 0F7A                            l250 0FDB                            l226 077F  
                          l251 0FDC                            l227 0780                            l245 0F6A  
                          l254 07CB                            l248 0FCD                            l249 0FDC  
                          l370 0582                            l371 0587                            l620 065B  
                          l612 0609                            l380 05D7                            l372 058C  
                          l621 0667                            l613 0617                            l381 05ED  
                          l373 05C3                            l198 0FE6                            l622 066C  
                          l614 065C                            l630 06A0                            l382 05DB  
                          l374 05A6                            l199 0FE9                            l615 062E  
                          l631 06A1                            l383 05F9                            l375 05D6  
                          l367 0592                            l616 0622                            l632 06B2  
                          l376 05AD                            l368 057D                            l617 0633  
                          l633 06C0                            l625 067C                            l377 05B4  
                          l369 05A5                            l618 0634                            l634 06CC  
                          l626 0686                            l378 05BB                            l619 064D  
                          l635 06D1                            l627 06C1                            l811 002E  
                          l379 05E0                            l628 069B                            l820 0223  
                          l812 0044                            l660 056A                            l629 068F  
                          l821 00B5                            l813 0041                            l661 0557  
                          l830 0146                            l822 0134                            l814 004D  
                          l662 0563                            l654 04FE                            l831 0155  
                          l823 00E6                            l815 005E                            l663 0558  
                          l655 057A                            l840 01FF                            l832 016A  
                          l824 010D                            l816 0074                            l664 0569  
                          l656 0547                            l841 020B                            l833 018F  
                          l825 0103                            l817 0071                            l665 057A  
                          l657 0533                            l842 020F                            l834 0186  
                          l826 012F                            l818 007C                            l658 0534  
                          l835 018E                            l827 013B                            l819 009E  
                          l659 0546                            l836 018D                            l828 0145  
                          l837 01C7                            l829 0165                            l838 01C6  
                          l839 01E3                            l880 0464                            l881 0456  
                          l890 04A6                            l882 046B                            l891 04B2  
                          l883 0487                            l892 04D5                            l884 046C  
                          l876 0437                            l885 048E                            l877 043F  
                          l886 049B                            l878 0451                            l887 048F  
                          l879 04DE                            l889 04A6                            _GIE 005F  
                          _RA1 0029                            _RA4 002C                            _RD0 0040  
                          _RD1 0041                            _RD2 0042                            _RD3 0043  
                          _RD4 0044                            _RD5 0045                            _RD6 0046  
                          _RD7 0047                            _PR2 0092                   __CFG_CPD$OFF 0000  
                          _res 0054                            fsr0 0004                   ___awmod@sign 0021  
                 __CFG_LVP$OFF 0000                   ___fltol@exp1 0078        __size_of_Lcd_Init_8bits 004B  
                         l2000 07A8                           l2010 07C5                           l2002 07AD  
                         l2012 0F5E                           l2004 07B3                           l2020 0FD3  
                         l2006 07B9                           l2014 0FC0                           l2008 07BF  
                         l2016 0FC5                           l2040 05FA                           l2200 0090  
                         l2018 0FCD                           l2050 060D                           l2042 05FD  
                         l2210 00B4                           l2202 0094                           l2060 0622  
                         l2052 0612                           l2044 0601                           l2220 00E4  
                         l2212 00B5                           l2204 009D                           l2070 064B  
                         l2062 0629                           l2054 0617                           l2046 0606  
                         l2230 0103                           l2222 00E6                           l2214 00CC  
                         l2206 009E                           l2080 0667                           l2072 064D  
                         l2064 062E                           l2056 0619                           l2048 0609  
                         l2224 00EB                           l2232 010D                           l2240 0134  
                         l2216 00D4                           l2208 00A3                           l2160 0022  
                         l2082 066C                           l2074 0654                           l2066 0634  
                         l2058 061F                           l2250 0153                           l2242 013B  
                         l2234 011F                           l2226 00FD                           l2218 00DC  
                         l2170 0038                           l2162 0028                           l2068 0645  
                         l2076 065C                           l2260 016B                           l2252 0155  
                         l2244 0143                           l2236 0120                           l2228 0101  
                         l2180 0052                           l2172 0041                           l2164 002C  
                         l2078 0661                           l2270 0194                           l2262 016F  
                         l2254 015E                           l2246 0146                           l2238 012F  
                         l2190 0068                           l2182 0058                           l2174 0042  
                         l2166 002E                           l2158 001B                           l2600 07EC  
                         l2280 01D4                           l2272 01A2                           l2264 0183  
                         l2248 014F                           l2256 0165                           l2192 0071  
                         l2184 005C                           l2168 0033                           l2176 0044  
                         l2290 0205                           l2282 01E3                           l2274 01A6  
                         l2266 018A                           l2258 016A                           l2194 0072  
                         l2186 005E                           l2178 004D                           l2620 067C  
                         l2612 066D                           l2292 0209                           l2284 01F2  
                         l2276 01BF                           l2268 018F                           l2188 0063  
                         l2196 0074                           l2700 0456                           l1900 0F97  
                         l2630 0696                           l2622 0680                           l2614 0670  
                         l2294 020B                           l2286 01F6                           l2278 01C7  
                         l2198 0084                           l2710 048F                           l2702 0464  
                         l1910 0FA0                           l1902 0F9A                           l2560 0FFB  
                         l2552 0FDE                           l2640 06B9                           l2632 069B  
                         l2624 0686                           l2616 0674                           l2296 021A  
                         l2288 01FE                           l2720 04CA                           l2712 049B  
                         l2704 046C                           l1912 0FA1                           l1904 0F9B  
                         l1920 070A                           l2800 03C2                           l2554 0FE2  
                         l2570 0752                           l2562 0732                           l2634 06A1  
                         l2626 068C                           l2642 06C1                           l2618 0679  
                         l2298 0223                           l2650 04DF                           l2722 04CF  
                         l2714 049F                           l2706 0470                           l1930 0591  
                         l1914 0FA2                           l1906 0F9C                           l1922 070B  
                         l2810 03FE                           l2802 03CC                           l2730 0224  
                         l2556 0FED                           l2580 0764                           l2572 0755  
                         l2564 0739                           l2644 06C6                           l2636 06AB  
                         l2628 068F                           l2660 0514                           l2652 04F4  
                         l2724 04D3                           l2716 04AA                           l2708 047E  
                         l1940 05E0                           l1932 0592                           l1916 0FA4  
                         l1908 0F9F                           l2812 040B                           l2804 03D8  
                         l2740 024A                           l2732 0229                           l2558 0FF4  
                         l2590 0775                           l2582 0767                           l2574 0758  
                         l2566 0743                           l2646 06CC                           l2638 06B2  
                         l2670 0532                           l2662 051C                           l2654 04FD  
                         l2726 04D5                           l2718 04B4                           l1934 05C2  
                         l1918 06D3                           l2806 03E4                           l2750 028A  
                         l2742 0256                           l2734 022F                           l2592 077B  
                         l2576 075B                           l2568 0744                           l2584 076B  
                         l1960 0FAD                           l2648 06D1                           l2680 0558  
                         l2672 0534                           l2664 051E                           l2656 04FE  
                         l2728 04DE                           l1936 05C3                           l1928 057C  
                         l2808 03F1                           l2760 02A0                           l2752 0291  
                         l2744 0262                           l2736 0241                           l1882 0F6C  
                         l2586 0772                           l2578 0761                           l2594 07CF  
                         l1970 0FB4                           l1962 0FAE                           l1954 0FA5  
                         l2682 056A                           l2666 0522                           l2674 0547  
                         l2658 0513                           l2690 0427                           l1938 05DF  
                         l1890 0F8F                           l2930 0713                           l2770 02B6  
                         l2762 02A1                           l2754 0299                           l2746 026A  
                         l2738 0245                           l1884 0F6F                           l2588 0773  
                         l2596 07D2                           l1980 0FB9                           l1972 0FB5  
                         l1964 0FAF                           l1956 0FA8                           l2684 056F  
                         l2676 054D                           l2668 0529                           l2692 0437  
                         l2932 059A                           l1892 0F92                           l2780 0322  
                         l2772 02F1                           l2764 02A2                           l2756 029D  
                         l2748 0285                           l1886 0F71                           l1990 078D  
                         l2598 07E3                           l1982 0FBA                           l1974 0FB6  
                         l1966 0FB0                           l1958 0FAA                           l2678 0556  
                         l2694 0447                           l2686 041E                           l2934 05CB  
                         l1894 0F94                           l2790 036F                           l2782 032E  
                         l2774 02F9                           l2766 02A3                           l2758 029F  
                         l1888 0F77                           l1992 0793                           l1984 0FBB  
                         l1976 0FB7                           l1968 0FB1                           l2696 0450  
                         l2688 0423                           l2936 05E8                           l1896 0F95  
                         l2792 0383                           l2784 0344                           l2776 0306  
                         l2768 02B2                           l1994 0797                           l1986 0781  
                         l1978 0FB8                           l2698 0451                           l1898 0F96  
                         l2794 038D                           l2786 034E                           l2778 0315  
                         l1996 079D                           l1988 0784                           l2796 0399  
                         l2788 035A                           l1998 07A2                           l2798 03AE  
                         STR_1 0817                           STR_2 0806                           STR_3 0834  
                         STR_4 0840                           STR_5 0827                           u1400 0601  
                         u1401 0600                           u1410 060D                           u1411 060C  
                         u2220 0FE2                           u1420 061F                           u2300 0674  
                         u2221 0FE1                           u1421 061E                           u2301 0673  
                         u2230 0FED                           u2310 0680                           u2231 0FEC  
                         u2311 067F                           u2240 0FF4                           u1440 0632  
                         u2320 068C                           u2400 050C                           u2241 0FF3  
                         u1441 0631                           u2321 068B                           u1370 0FC5  
                         u2250 0FFB                           u2410 0522                           u1371 0FC4  
                         u2251 0FFA                           u1435 0623                           u2411 0521  
                         u1380 0FD3                           u2260 0739                           u1460 0645  
                         u2340 069F                           u1700 0033                           u2420 0529  
                         u2500 0427                           u1381 0FD2                           u2261 0738  
                         u1461 0644                           u2341 069E                           u1701 0032  
                         u2421 0528                           u2405 0507                           u2501 0426  
                         u2350 06AB                           u1710 0038                           u2510 0447  
                         u1455 0635                           u2351 06AA                           u2335 0690  
                         u1711 0037                           u2511 0446                           u2280 0772  
                         u1480 065A                           u1800 0101                           u1720 005C  
                         u2440 0545                           u2600 04BF                           u2281 0771  
                         u1481 0659                           u1465 0641                           u1801 0100  
                         u1721 005B                           u2441 0544                           u2290 07F9  
                         u1490 0661                           u2370 06BF                           u1730 0063  
                         u2450 054D                           u2610 04CF                           u2530 046A  
                         u2275 0747                           u2291 07F8                           u1491 0660  
                         u1475 064E                           u2371 06BE                           u2355 06A7  
                         u1731 0062                           u2451 054C                           u2435 0535  
                         u2611 04CE                           u2531 0469                           u2380 06C6  
                         u1900 0183                           u1820 011F                           u1740 0068  
                         u2620 04D3                           u2381 06C5                           u2365 06B3  
                         u1901 0182                           u1821 011E                           u1741 0067  
                         u2621 04D2                           u2605 04BA                           u2525 045B  
                         u1910 018A                           u1830 013A                           u1750 0084  
                         u2470 0568                           u2390 04F4                           u2550 048D  
                         u2630 0299                           u1911 0189                           u1831 0139  
                         u1815 0105                           u1751 0083                           u2471 0567  
                         u2391 04F3                           u2551 048C                           u2631 0298  
                         u1920 0194                           u1840 0143                           u1760 00A3  
                         u2480 056F                           u2640 02AB                           u1921 0193  
                         u1841 0142                           u1825 011B                           u1761 00A2  
                         u2481 056E                           u2465 055A                           u2545 047F  
                         u2641 02AA                           u1930 01A6                           u1770 00EB  
                         u1690 002C                           u2570 049F                           u2490 0423  
                         u2650 02B1                           u1931 01A5                           u1771 00EA  
                         u1691 002B                           u2571 049E                           u2491 0422  
                         u2651 02B0                           u1940 01B5                           u1860 0153  
                         u2580 04A5                           u2660 0306                           u1861 0152  
                         u2581 04A4                           u2565 0493                           u2661 0305  
                         u1950 01D4                           u2590 04AA                           u2670 0315  
                         u1951 01D3                           u1855 0148                           u2591 04A9  
                         u2671 0314                           u2727 027E                           u1960 01F2  
                         u1880 0169                           u1961 01F1                           u1945 01B0  
                         u1881 0168                           u1785 00ED                           u2737 0411  
                         u2665 0302                           u1970 0209                           u1890 016F  
                         u2747 0778                           u1971 0208                           u1955 01D0  
                         u1891 016E                           u1875 0157                           u1795 00F6  
                         u2675 0311                           _PEIE 005E                           u2757 0788  
                         u1965 01EE                           u2767 0795                           u2777 079F  
                         u2787 07AA                           u2797 0F74                           i1l91 0F88  
                         i1l92 0F88                   __CFG_WRT$OFF 0000              ?_Lcd_Write_String 0023  
                         _main 0224                           _init 0F8F                           btemp 007E  
                __CFG_BOREN$ON 0000                           start 000C                __end_of_PWMconf 0FBF  
           ??_Lcd_Write_String 0077                  __CFG_IESO$OFF 0000                ___fldiv@new_exp 003C  
                __CFG_MCLRE$ON 0000                ?_interrupciones 0070                  ___fltol@sign1 0077  
                        ?_main 0070                          ?_init 0070                __end_of___fldiv 0224  
              __end_of___awdiv 066D                  __CFG_WDTE$OFF 0000                __end_of___awmod 06D2  
            ??_Lcd_Clear_8bits 0075                __end_of___fltol 057B                          _ANSEL 0188  
              ___awdiv@divisor 0073                          _T1CON 0010                ___awdiv@counter 0020  
                        _TMR1H 000F                          _TMR1L 000E                          _PORTA 0005  
                        _PORTB 0006                          _PORTC 0007                          _PORTD 0008  
                        _PORTE 0009                          _TRISA 0085                          _TRISB 0086  
                        _TRISC 0087                          _TRISD 0088                          _SSPIE 0463  
                        _TRISE 0089                          _SSPIF 0063           Lcd_Write_String@modo 0023  
               __CFG_FCMEN$OFF 0000          __end_of_Lcd_Cmd_8bits 0F7B                __end_of_funcAdc 05FA  
              __end_of_initOsc 072F                          pclath 000A                          status 0003  
                        wtemp0 007E                    funcAdc@anaP 0073                    funcAdc@divD 0077  
                  funcAdc@just 0074               __end_of_Lcd_Port 1000                __initialization 000F  
                 __end_of_main 041B                   __end_of_init 0FA5  __size_of_Lcd_Set_Cursor_8bits 001E  
                       ??_main 004D                         ??_init 0073                         _ADRESH 001E  
                       _CCPR1L 0015               ___awdiv@dividend 0075                         _ANSELH 0189  
                    ??_PWMconf 0073                         i1l2350 0F86                         i1l2344 0F7B  
                       i1l2346 0F81                         i1l2348 0F82                         u212_20 0F81  
                       u212_21 0F80                    initOsc@frec 0075                         _TMR1ON 0080  
      __size_of_Lcd_Write_Char 0052                         _SSPADD 0093                         _TRISC3 043B  
                       _TRISC4 043C                         _SSPCON 0014                         _SSPBUF 0013  
             __end_of___xxtofl 04DF                 __CFG_PWRTE$OFF 0000                      ??___fldiv 0032  
                    ??___awdiv 0077                      ??___awmod 0077                      ??___fltol 0048  
                       _conteo 007A               ___awdiv@quotient 0022                ___awmod@divisor 0073  
              ___awmod@counter 0020                      ??_funcAdc 0075                      ??_initOsc 0073  
                       saved_w 007E                 _Lcd_Init_8bits 0781                   ___xxtofl@arg 0026  
                 ___xxtofl@exp 0025                   ___xxtofl@val 0073        __end_of__initialization 0017  
                   ___fltol@f1 0044                 __pcstackCOMMON 0070         __end_of_Lcd_Init_8bits 07CC  
                    ?_Lcd_Port 0070                     __pbssBANK0 0051                _Lcd_Clear_8bits 0F5E  
                   __pmaintext 0224               ??_interrupciones 0070                     __pintentry 0004  
    __size_of_Lcd_Write_String 002F                      ?___xxtofl 0073                ?_Lcd_Init_8bits 0070  
                   ??_Lcd_Port 0073                        _SSPCON2 0091                        _SSPSTAT 0094  
                   __stringtab 0800                        _PWMconf 0FA5                 _Lcd_Write_Char 072F  
                      ___fldiv 001B                        ___awdiv 05FA                        ___awmod 066D  
                      ___fltol 04DF                      _ANSELbits 0188                        __ptext1 06D2  
                      __ptext2 0F8F                        __ptext3 057B                        __ptext4 041B  
                      __ptext5 04DF                        __ptext6 001B                        __ptext7 066D  
                      __ptext8 05FA                        __ptext9 0FA5                        _funcAdc 057B  
                      _initOsc 06D2                      _T2CONbits 0012                     ??___xxtofl 0020  
             ___awmod@dividend 0075                        main@Key 0050   __end_of_Lcd_Set_Cursor_8bits 0FDD  
       __end_of_Lcd_Write_Char 0781           end_of_initialization 0017        __end_of_Lcd_Clear_8bits 0F6B  
       __size_of_Lcd_Cmd_8bits 0010                      Lcd_Port@a 0073                      _PORTBbits 0006  
                    _PORTEbits 0009                  ___xxtofl@sign 0024                      _TRISCbits 0087  
                  ___fldiv@grs 003E                    ___fldiv@rem 0037                ?_Lcd_Write_Char 0074  
            Lcd_Write_String@a 0027              Lcd_Write_String@i 0025                    _CCP1CONbits 0017  
             _Lcd_Write_String 07CC            start_initialization 000F                  _Lcd_Cmd_8bits 0F6B  
        Lcd_Set_Cursor_8bits@x 0075          Lcd_Set_Cursor_8bits@y 0076              __size_of_Lcd_Port 0023  
             ?_Lcd_Clear_8bits 0070       __CFG_FOSC$INTRC_NOCLKOUT 0000           _Lcd_Set_Cursor_8bits 0FBF  
              Lcd_Write_Char@a 0022                Lcd_Write_Char@y 0021               ??_Lcd_Init_8bits 0075  
                    ___fldiv@a 002A                      ___fldiv@b 002E                    __pbssCOMMON 0079  
                    ___latbits 0002                  __pcstackBANK0 0020                 ?_Lcd_Cmd_8bits 0070  
            __size_of___xxtofl 00C4                       ?_PWMconf 0070                       ?___fldiv 002A  
                     ?___awdiv 0073          ?_Lcd_Set_Cursor_8bits 0075                       ?___awmod 0073  
                     ?___fltol 0044                      __pstrings 0800                       ?_funcAdc 0073  
                     ?_initOsc 0070              interrupt_function 0004                       _PIE1bits 008C  
                     _PIR1bits 000C                     _ADCON0bits 001F                    __stringbase 0805  
                   _ADCON1bits 009F        __size_of_interrupciones 0014                ??_Lcd_Cmd_8bits 0073  
             ??_Lcd_Write_Char 0076                       _Lcd_Port 0FDD       __end_of_Lcd_Write_String 07FB  
             __size_of_PWMconf 001A         ??_Lcd_Set_Cursor_8bits 0076               __size_of___fldiv 0209  
             __size_of___awdiv 0073               __size_of___awmod 0065               __size_of___fltol 009C  
           __end_of__stringtab 0806                       ___xxtofl 041B               __size_of_funcAdc 007F  
             __size_of_initOsc 005D                       __ptext10 07CC                       __ptext11 072F  
                     __ptext12 0FDD                       __ptext13 0FBF                       __ptext14 0781  
                     __ptext15 0F5E                       __ptext16 0F6B                       __ptext17 0F7B  
            __CFG_BOR4V$BOR40V 0000                  __size_of_main 01F7                  __size_of_init 0016  
         Lcd_Cmd_8bits@comando 0074                       _numerito 0053                     _INTCONbits 000B  
           Lcd_Write_Char@modo 0074             Lcd_Write_Char@temp 0020                       intlevel1 0000  
                    stringcode 0800                     _OSCCONbits 008F       __size_of_Lcd_Clear_8bits 000D  
                   _OPTION_REG 0081                 _interrupciones 0F7B                       stringdir 0800  
                     stringtab 0800                    _SSPCON2bits 0091  
